ARM GAS  C:\Users\zpstrwy\AppData\Local\Temp\cc1GCVkd.s 			page 1


   1              		.cpu cortex-m0
   2              		.fpu softvfp
   3              		.eabi_attribute 20, 1
   4              		.eabi_attribute 21, 1
   5              		.eabi_attribute 23, 3
   6              		.eabi_attribute 24, 1
   7              		.eabi_attribute 25, 1
   8              		.eabi_attribute 26, 1
   9              		.eabi_attribute 30, 6
  10              		.eabi_attribute 34, 0
  11              		.eabi_attribute 18, 4
  12              		.code	16
  13              		.file	"ADC_SAP.c"
  14              		.text
  15              	.Ltext0:
  16              		.cfi_sections	.debug_frame
  17              		.global	ADC_SAP_initVar
  18              		.bss
  19              		.type	ADC_SAP_initVar, %object
  20              		.size	ADC_SAP_initVar, 1
  21              	ADC_SAP_initVar:
  22 0000 00       		.space	1
  23              		.comm	ADC_SAP_offset,2,4
  24              		.comm	ADC_SAP_countsPer10Volt,4,4
  25              		.section	.rodata
  26              		.align	2
  27              		.type	ADC_SAP_channelsConfig, %object
  28              		.size	ADC_SAP_channelsConfig, 4
  29              	ADC_SAP_channelsConfig:
  30 0000 00000000 		.space	4
  31              		.section	.text.ADC_SAP_Start,"ax",%progbits
  32              		.align	2
  33              		.global	ADC_SAP_Start
  34              		.code	16
  35              		.thumb_func
  36              		.type	ADC_SAP_Start, %function
  37              	ADC_SAP_Start:
  38              	.LFB2:
  39              		.file 1 ".\\Generated_Source\\PSoC4\\ADC_SAP.c"
   1:.\Generated_Source\PSoC4/ADC_SAP.c **** /*******************************************************************************
   2:.\Generated_Source\PSoC4/ADC_SAP.c **** * File Name: ADC_SAP.c
   3:.\Generated_Source\PSoC4/ADC_SAP.c **** * Version 2.40
   4:.\Generated_Source\PSoC4/ADC_SAP.c **** *
   5:.\Generated_Source\PSoC4/ADC_SAP.c **** * Description:
   6:.\Generated_Source\PSoC4/ADC_SAP.c **** *  This file provides the source code to the API for the Sequencing Successive
   7:.\Generated_Source\PSoC4/ADC_SAP.c **** *  Approximation ADC Component Component.
   8:.\Generated_Source\PSoC4/ADC_SAP.c **** *
   9:.\Generated_Source\PSoC4/ADC_SAP.c **** * Note:
  10:.\Generated_Source\PSoC4/ADC_SAP.c **** *
  11:.\Generated_Source\PSoC4/ADC_SAP.c **** ********************************************************************************
  12:.\Generated_Source\PSoC4/ADC_SAP.c **** * Copyright 2008-2015, Cypress Semiconductor Corporation.  All rights reserved.
  13:.\Generated_Source\PSoC4/ADC_SAP.c **** * You may use this file only in accordance with the license, terms, conditions,
  14:.\Generated_Source\PSoC4/ADC_SAP.c **** * disclaimers, and limitations in the end user license agreement accompanying
  15:.\Generated_Source\PSoC4/ADC_SAP.c **** * the software package with which this file was provided.
  16:.\Generated_Source\PSoC4/ADC_SAP.c **** *******************************************************************************/
  17:.\Generated_Source\PSoC4/ADC_SAP.c **** 
  18:.\Generated_Source\PSoC4/ADC_SAP.c **** #include "ADC_SAP.h"
ARM GAS  C:\Users\zpstrwy\AppData\Local\Temp\cc1GCVkd.s 			page 2


  19:.\Generated_Source\PSoC4/ADC_SAP.c **** 
  20:.\Generated_Source\PSoC4/ADC_SAP.c **** 
  21:.\Generated_Source\PSoC4/ADC_SAP.c **** /***************************************
  22:.\Generated_Source\PSoC4/ADC_SAP.c **** * Global data allocation
  23:.\Generated_Source\PSoC4/ADC_SAP.c **** ***************************************/
  24:.\Generated_Source\PSoC4/ADC_SAP.c **** uint8 ADC_SAP_initVar = 0u;
  25:.\Generated_Source\PSoC4/ADC_SAP.c **** volatile int16 ADC_SAP_offset[ADC_SAP_TOTAL_CHANNELS_NUM];
  26:.\Generated_Source\PSoC4/ADC_SAP.c **** volatile int32 ADC_SAP_countsPer10Volt[ADC_SAP_TOTAL_CHANNELS_NUM];   /* Gain compensation */
  27:.\Generated_Source\PSoC4/ADC_SAP.c **** 
  28:.\Generated_Source\PSoC4/ADC_SAP.c **** 
  29:.\Generated_Source\PSoC4/ADC_SAP.c **** /***************************************
  30:.\Generated_Source\PSoC4/ADC_SAP.c **** * Local data allocation
  31:.\Generated_Source\PSoC4/ADC_SAP.c **** ***************************************/
  32:.\Generated_Source\PSoC4/ADC_SAP.c **** /* Channels configuration generated by customiser */
  33:.\Generated_Source\PSoC4/ADC_SAP.c **** static const uint32 CYCODE ADC_SAP_channelsConfig[] = { 0x00000000u };
  34:.\Generated_Source\PSoC4/ADC_SAP.c **** 
  35:.\Generated_Source\PSoC4/ADC_SAP.c **** 
  36:.\Generated_Source\PSoC4/ADC_SAP.c **** /*******************************************************************************
  37:.\Generated_Source\PSoC4/ADC_SAP.c **** * Function Name: ADC_SAP_Start
  38:.\Generated_Source\PSoC4/ADC_SAP.c **** ********************************************************************************
  39:.\Generated_Source\PSoC4/ADC_SAP.c **** *
  40:.\Generated_Source\PSoC4/ADC_SAP.c **** * Summary:
  41:.\Generated_Source\PSoC4/ADC_SAP.c **** *  Performs all required initialization for this component
  42:.\Generated_Source\PSoC4/ADC_SAP.c **** *  and enables the power. The power will be set to the appropriate
  43:.\Generated_Source\PSoC4/ADC_SAP.c **** *  power based on the clock frequency.
  44:.\Generated_Source\PSoC4/ADC_SAP.c **** *
  45:.\Generated_Source\PSoC4/ADC_SAP.c **** * Parameters:
  46:.\Generated_Source\PSoC4/ADC_SAP.c **** *  None.
  47:.\Generated_Source\PSoC4/ADC_SAP.c **** *
  48:.\Generated_Source\PSoC4/ADC_SAP.c **** * Return:
  49:.\Generated_Source\PSoC4/ADC_SAP.c **** *  None.
  50:.\Generated_Source\PSoC4/ADC_SAP.c **** *
  51:.\Generated_Source\PSoC4/ADC_SAP.c **** * Global variables:
  52:.\Generated_Source\PSoC4/ADC_SAP.c **** *  The ADC_SAP_initVar variable is used to indicate when/if initial
  53:.\Generated_Source\PSoC4/ADC_SAP.c **** *  configuration of this component has happened. The variable is initialized to
  54:.\Generated_Source\PSoC4/ADC_SAP.c **** *  zero and set to 1 the first time ADC_Start() is called. This allows for
  55:.\Generated_Source\PSoC4/ADC_SAP.c **** *  component Re-Start without re-initialization in all subsequent calls to the
  56:.\Generated_Source\PSoC4/ADC_SAP.c **** *  ADC_SAP_Start() routine.
  57:.\Generated_Source\PSoC4/ADC_SAP.c **** *  If re-initialization of the component is required the variable should be set
  58:.\Generated_Source\PSoC4/ADC_SAP.c **** *  to zero before call of ADC_SAP_Start() routine, or the user may call
  59:.\Generated_Source\PSoC4/ADC_SAP.c **** *  ADC_SAP_Init() and ADC_SAP_Enable() as done in the
  60:.\Generated_Source\PSoC4/ADC_SAP.c **** *  ADC_SAP_Start() routine.
  61:.\Generated_Source\PSoC4/ADC_SAP.c **** *
  62:.\Generated_Source\PSoC4/ADC_SAP.c **** *******************************************************************************/
  63:.\Generated_Source\PSoC4/ADC_SAP.c **** void ADC_SAP_Start(void)
  64:.\Generated_Source\PSoC4/ADC_SAP.c **** {
  40              		.loc 1 64 0
  41              		.cfi_startproc
  42 0000 80B5     		push	{r7, lr}
  43              		.cfi_def_cfa_offset 8
  44              		.cfi_offset 7, -8
  45              		.cfi_offset 14, -4
  46 0002 00AF     		add	r7, sp, #0
  47              		.cfi_def_cfa_register 7
  65:.\Generated_Source\PSoC4/ADC_SAP.c ****     /* If not Initialized then initialize all required hardware and software */
  66:.\Generated_Source\PSoC4/ADC_SAP.c ****     if(ADC_SAP_initVar == 0u)
  48              		.loc 1 66 0
ARM GAS  C:\Users\zpstrwy\AppData\Local\Temp\cc1GCVkd.s 			page 3


  49 0004 064B     		ldr	r3, .L3
  50 0006 1B78     		ldrb	r3, [r3]
  51 0008 002B     		cmp	r3, #0
  52 000a 04D1     		bne	.L2
  67:.\Generated_Source\PSoC4/ADC_SAP.c ****     {
  68:.\Generated_Source\PSoC4/ADC_SAP.c ****         ADC_SAP_Init();
  53              		.loc 1 68 0
  54 000c FFF7FEFF 		bl	ADC_SAP_Init
  69:.\Generated_Source\PSoC4/ADC_SAP.c ****         ADC_SAP_initVar = 1u;
  55              		.loc 1 69 0
  56 0010 034B     		ldr	r3, .L3
  57 0012 0122     		mov	r2, #1
  58 0014 1A70     		strb	r2, [r3]
  59              	.L2:
  70:.\Generated_Source\PSoC4/ADC_SAP.c ****     }
  71:.\Generated_Source\PSoC4/ADC_SAP.c ****     ADC_SAP_Enable();
  60              		.loc 1 71 0
  61 0016 FFF7FEFF 		bl	ADC_SAP_Enable
  72:.\Generated_Source\PSoC4/ADC_SAP.c **** }
  62              		.loc 1 72 0
  63 001a BD46     		mov	sp, r7
  64              		@ sp needed
  65 001c 80BD     		pop	{r7, pc}
  66              	.L4:
  67 001e C046     		.align	2
  68              	.L3:
  69 0020 00000000 		.word	ADC_SAP_initVar
  70              		.cfi_endproc
  71              	.LFE2:
  72              		.size	ADC_SAP_Start, .-ADC_SAP_Start
  73              		.global	__aeabi_idiv
  74              		.section	.text.ADC_SAP_Init,"ax",%progbits
  75              		.align	2
  76              		.global	ADC_SAP_Init
  77              		.code	16
  78              		.thumb_func
  79              		.type	ADC_SAP_Init, %function
  80              	ADC_SAP_Init:
  81              	.LFB3:
  73:.\Generated_Source\PSoC4/ADC_SAP.c **** 
  74:.\Generated_Source\PSoC4/ADC_SAP.c **** 
  75:.\Generated_Source\PSoC4/ADC_SAP.c **** /*******************************************************************************
  76:.\Generated_Source\PSoC4/ADC_SAP.c **** * Function Name: ADC_SAP_Init
  77:.\Generated_Source\PSoC4/ADC_SAP.c **** ********************************************************************************
  78:.\Generated_Source\PSoC4/ADC_SAP.c **** *
  79:.\Generated_Source\PSoC4/ADC_SAP.c **** * Summary:
  80:.\Generated_Source\PSoC4/ADC_SAP.c **** *  Initialize component's parameters to the parameters set by user in the
  81:.\Generated_Source\PSoC4/ADC_SAP.c **** *  customizer of the component placed onto schematic. Usually called in
  82:.\Generated_Source\PSoC4/ADC_SAP.c **** *  ADC_SAP_Start().
  83:.\Generated_Source\PSoC4/ADC_SAP.c **** *
  84:.\Generated_Source\PSoC4/ADC_SAP.c **** * Parameters:
  85:.\Generated_Source\PSoC4/ADC_SAP.c **** *  None.
  86:.\Generated_Source\PSoC4/ADC_SAP.c **** *
  87:.\Generated_Source\PSoC4/ADC_SAP.c **** * Return:
  88:.\Generated_Source\PSoC4/ADC_SAP.c **** *  None.
  89:.\Generated_Source\PSoC4/ADC_SAP.c **** *
  90:.\Generated_Source\PSoC4/ADC_SAP.c **** * Global variables:
ARM GAS  C:\Users\zpstrwy\AppData\Local\Temp\cc1GCVkd.s 			page 4


  91:.\Generated_Source\PSoC4/ADC_SAP.c **** *  The ADC_SAP_offset variable is initialized.
  92:.\Generated_Source\PSoC4/ADC_SAP.c **** *
  93:.\Generated_Source\PSoC4/ADC_SAP.c **** *******************************************************************************/
  94:.\Generated_Source\PSoC4/ADC_SAP.c **** void ADC_SAP_Init(void)
  95:.\Generated_Source\PSoC4/ADC_SAP.c **** {
  82              		.loc 1 95 0
  83              		.cfi_startproc
  84 0000 80B5     		push	{r7, lr}
  85              		.cfi_def_cfa_offset 8
  86              		.cfi_offset 7, -8
  87              		.cfi_offset 14, -4
  88 0002 84B0     		sub	sp, sp, #16
  89              		.cfi_def_cfa_offset 24
  90 0004 00AF     		add	r7, sp, #0
  91              		.cfi_def_cfa_register 7
  96:.\Generated_Source\PSoC4/ADC_SAP.c ****     uint32 chNum;
  97:.\Generated_Source\PSoC4/ADC_SAP.c ****     uint32 tmpRegVal;
  98:.\Generated_Source\PSoC4/ADC_SAP.c ****     int32 counts;
  99:.\Generated_Source\PSoC4/ADC_SAP.c **** 
 100:.\Generated_Source\PSoC4/ADC_SAP.c ****     #if(ADC_SAP_TOTAL_CHANNELS_NUM > 1u)
 101:.\Generated_Source\PSoC4/ADC_SAP.c ****         static const uint8 CYCODE ADC_SAP_InputsPlacement[] =
 102:.\Generated_Source\PSoC4/ADC_SAP.c ****         {
 103:.\Generated_Source\PSoC4/ADC_SAP.c ****             (uint8)(ADC_SAP_cy_psoc4_sarmux_8__CH_0_PORT << 4u) |
 104:.\Generated_Source\PSoC4/ADC_SAP.c ****             (uint8)ADC_SAP_cy_psoc4_sarmux_8__CH_0_PIN
 105:.\Generated_Source\PSoC4/ADC_SAP.c ****             ,(uint8)(ADC_SAP_cy_psoc4_sarmux_8__CH_1_PORT << 4u) |
 106:.\Generated_Source\PSoC4/ADC_SAP.c ****              (uint8)ADC_SAP_cy_psoc4_sarmux_8__CH_1_PIN
 107:.\Generated_Source\PSoC4/ADC_SAP.c ****             #if(ADC_SAP_TOTAL_CHANNELS_NUM > 2u)
 108:.\Generated_Source\PSoC4/ADC_SAP.c ****                 ,(uint8)(ADC_SAP_cy_psoc4_sarmux_8__CH_2_PORT << 4u) |
 109:.\Generated_Source\PSoC4/ADC_SAP.c ****                  (uint8)ADC_SAP_cy_psoc4_sarmux_8__CH_2_PIN
 110:.\Generated_Source\PSoC4/ADC_SAP.c ****             #endif /* End ADC_SAP_TOTAL_CHANNELS_NUM > 2u */
 111:.\Generated_Source\PSoC4/ADC_SAP.c ****             #if(ADC_SAP_TOTAL_CHANNELS_NUM > 3u)
 112:.\Generated_Source\PSoC4/ADC_SAP.c ****                 ,(uint8)(ADC_SAP_cy_psoc4_sarmux_8__CH_3_PORT << 4u) |
 113:.\Generated_Source\PSoC4/ADC_SAP.c ****                  (uint8)ADC_SAP_cy_psoc4_sarmux_8__CH_3_PIN
 114:.\Generated_Source\PSoC4/ADC_SAP.c ****             #endif /* End ADC_SAP_TOTAL_CHANNELS_NUM > 3u */
 115:.\Generated_Source\PSoC4/ADC_SAP.c ****             #if(ADC_SAP_TOTAL_CHANNELS_NUM > 4u)
 116:.\Generated_Source\PSoC4/ADC_SAP.c ****                 ,(uint8)(ADC_SAP_cy_psoc4_sarmux_8__CH_4_PORT << 4u) |
 117:.\Generated_Source\PSoC4/ADC_SAP.c ****                  (uint8)ADC_SAP_cy_psoc4_sarmux_8__CH_4_PIN
 118:.\Generated_Source\PSoC4/ADC_SAP.c ****             #endif /* End ADC_SAP_TOTAL_CHANNELS_NUM > 4u */
 119:.\Generated_Source\PSoC4/ADC_SAP.c ****             #if(ADC_SAP_TOTAL_CHANNELS_NUM > 5u)
 120:.\Generated_Source\PSoC4/ADC_SAP.c ****                 ,(uint8)(ADC_SAP_cy_psoc4_sarmux_8__CH_5_PORT << 4u) |
 121:.\Generated_Source\PSoC4/ADC_SAP.c ****                  (uint8)ADC_SAP_cy_psoc4_sarmux_8__CH_5_PIN
 122:.\Generated_Source\PSoC4/ADC_SAP.c ****             #endif /* End ADC_SAP_TOTAL_CHANNELS_NUM > 5u */
 123:.\Generated_Source\PSoC4/ADC_SAP.c ****             #if(ADC_SAP_TOTAL_CHANNELS_NUM > 6u)
 124:.\Generated_Source\PSoC4/ADC_SAP.c ****                 ,(uint8)(ADC_SAP_cy_psoc4_sarmux_8__CH_6_PORT << 4u) |
 125:.\Generated_Source\PSoC4/ADC_SAP.c ****                  (uint8)ADC_SAP_cy_psoc4_sarmux_8__CH_6_PIN
 126:.\Generated_Source\PSoC4/ADC_SAP.c ****             #endif /* End ADC_SAP_TOTAL_CHANNELS_NUM > 6u */
 127:.\Generated_Source\PSoC4/ADC_SAP.c ****             #if(ADC_SAP_TOTAL_CHANNELS_NUM > 7u)
 128:.\Generated_Source\PSoC4/ADC_SAP.c ****                 ,(uint8)(ADC_SAP_cy_psoc4_sarmux_8__CH_7_PORT << 4u) |
 129:.\Generated_Source\PSoC4/ADC_SAP.c ****                  (uint8)ADC_SAP_cy_psoc4_sarmux_8__CH_7_PIN
 130:.\Generated_Source\PSoC4/ADC_SAP.c ****             #endif /* End ADC_SAP_TOTAL_CHANNELS_NUM > 7u */
 131:.\Generated_Source\PSoC4/ADC_SAP.c ****             #if(ADC_SAP_TOTAL_CHANNELS_NUM > 8u)
 132:.\Generated_Source\PSoC4/ADC_SAP.c ****                 ,(uint8)(ADC_SAP_cy_psoc4_sarmux_8__CH_8_PORT << 4u) |
 133:.\Generated_Source\PSoC4/ADC_SAP.c ****                  (uint8)ADC_SAP_cy_psoc4_sarmux_8__CH_8_PIN
 134:.\Generated_Source\PSoC4/ADC_SAP.c ****             #endif /* End ADC_SAP_TOTAL_CHANNELS_NUM > 8u */
 135:.\Generated_Source\PSoC4/ADC_SAP.c ****             #if(ADC_SAP_TOTAL_CHANNELS_NUM > 9u)
 136:.\Generated_Source\PSoC4/ADC_SAP.c ****                 ,(uint8)(ADC_SAP_cy_psoc4_sarmux_8__CH_9_PORT << 4u) |
 137:.\Generated_Source\PSoC4/ADC_SAP.c ****                  (uint8)ADC_SAP_cy_psoc4_sarmux_8__CH_9_PIN
ARM GAS  C:\Users\zpstrwy\AppData\Local\Temp\cc1GCVkd.s 			page 5


 138:.\Generated_Source\PSoC4/ADC_SAP.c ****             #endif /* End ADC_SAP_TOTAL_CHANNELS_NUM > 9u */
 139:.\Generated_Source\PSoC4/ADC_SAP.c ****             #if(ADC_SAP_TOTAL_CHANNELS_NUM > 10u)
 140:.\Generated_Source\PSoC4/ADC_SAP.c ****                 ,(uint8)(ADC_SAP_cy_psoc4_sarmux_8__CH_10_PORT << 4u) |
 141:.\Generated_Source\PSoC4/ADC_SAP.c ****                  (uint8)ADC_SAP_cy_psoc4_sarmux_8__CH_10_PIN
 142:.\Generated_Source\PSoC4/ADC_SAP.c ****             #endif /* End ADC_SAP_TOTAL_CHANNELS_NUM > 10u */
 143:.\Generated_Source\PSoC4/ADC_SAP.c ****             #if(ADC_SAP_TOTAL_CHANNELS_NUM > 11u)
 144:.\Generated_Source\PSoC4/ADC_SAP.c ****                 ,(uint8)(ADC_SAP_cy_psoc4_sarmux_8__CH_11_PORT << 4u) |
 145:.\Generated_Source\PSoC4/ADC_SAP.c ****                  (uint8)ADC_SAP_cy_psoc4_sarmux_8__CH_11_PIN
 146:.\Generated_Source\PSoC4/ADC_SAP.c ****             #endif /* End ADC_SAP_TOTAL_CHANNELS_NUM > 11u */
 147:.\Generated_Source\PSoC4/ADC_SAP.c ****             #if(ADC_SAP_TOTAL_CHANNELS_NUM > 12u)
 148:.\Generated_Source\PSoC4/ADC_SAP.c ****                 ,(uint8)(ADC_SAP_cy_psoc4_sarmux_8__CH_12_PORT << 4u) |
 149:.\Generated_Source\PSoC4/ADC_SAP.c ****                  (uint8)ADC_SAP_cy_psoc4_sarmux_8__CH_12_PIN
 150:.\Generated_Source\PSoC4/ADC_SAP.c ****             #endif /* End ADC_SAP_TOTAL_CHANNELS_NUM > 12u */
 151:.\Generated_Source\PSoC4/ADC_SAP.c ****             #if(ADC_SAP_TOTAL_CHANNELS_NUM > 13u)
 152:.\Generated_Source\PSoC4/ADC_SAP.c ****                 ,(uint8)(ADC_SAP_cy_psoc4_sarmux_8__CH_13_PORT << 4u) |
 153:.\Generated_Source\PSoC4/ADC_SAP.c ****                  (uint8)ADC_SAP_cy_psoc4_sarmux_8__CH_13_PIN
 154:.\Generated_Source\PSoC4/ADC_SAP.c ****             #endif /* End ADC_SAP_TOTAL_CHANNELS_NUM > 13u */
 155:.\Generated_Source\PSoC4/ADC_SAP.c ****             #if(ADC_SAP_TOTAL_CHANNELS_NUM > 14u)
 156:.\Generated_Source\PSoC4/ADC_SAP.c ****                 ,(uint8)(ADC_SAP_cy_psoc4_sarmux_8__CH_14_PORT << 4u) |
 157:.\Generated_Source\PSoC4/ADC_SAP.c ****                  (uint8)ADC_SAP_cy_psoc4_sarmux_8__CH_14_PIN
 158:.\Generated_Source\PSoC4/ADC_SAP.c ****             #endif /* End ADC_SAP_TOTAL_CHANNELS_NUM > 14u */
 159:.\Generated_Source\PSoC4/ADC_SAP.c ****             #if(ADC_SAP_TOTAL_CHANNELS_NUM > 15u)
 160:.\Generated_Source\PSoC4/ADC_SAP.c ****                 ,(uint8)(ADC_SAP_cy_psoc4_sarmux_8__CH_15_PORT << 4u) |
 161:.\Generated_Source\PSoC4/ADC_SAP.c ****                  (uint8)ADC_SAP_cy_psoc4_sarmux_8__CH_15_PIN
 162:.\Generated_Source\PSoC4/ADC_SAP.c ****             #endif /* End ADC_SAP_TOTAL_CHANNELS_NUM > 15u */
 163:.\Generated_Source\PSoC4/ADC_SAP.c ****             #if(ADC_SAP_TOTAL_CHANNELS_NUM > 16u)
 164:.\Generated_Source\PSoC4/ADC_SAP.c ****                 ,(uint8)(ADC_SAP_cy_psoc4_sarmux_8__CH_16_PORT << 4u) |
 165:.\Generated_Source\PSoC4/ADC_SAP.c ****                  (uint8)ADC_SAP_cy_psoc4_sarmux_8__CH_16_PIN
 166:.\Generated_Source\PSoC4/ADC_SAP.c ****             #endif /* End ADC_SAP_TOTAL_CHANNELS_NUM > 16u */
 167:.\Generated_Source\PSoC4/ADC_SAP.c ****         };
 168:.\Generated_Source\PSoC4/ADC_SAP.c ****     #endif /* End ADC_SAP_TOTAL_CHANNELS_NUM > 1u */
 169:.\Generated_Source\PSoC4/ADC_SAP.c **** 
 170:.\Generated_Source\PSoC4/ADC_SAP.c ****     #if(ADC_SAP_IRQ_REMOVE == 0u)
 171:.\Generated_Source\PSoC4/ADC_SAP.c ****         /* Start and set interrupt vector */
 172:.\Generated_Source\PSoC4/ADC_SAP.c ****         CyIntSetPriority(ADC_SAP_INTC_NUMBER, ADC_SAP_INTC_PRIOR_NUMBER);
  92              		.loc 1 172 0
  93 0006 0F20     		mov	r0, #15
  94 0008 0321     		mov	r1, #3
  95 000a FFF7FEFF 		bl	CyIntSetPriority
 173:.\Generated_Source\PSoC4/ADC_SAP.c ****         (void)CyIntSetVector(ADC_SAP_INTC_NUMBER, &ADC_SAP_ISR);
  96              		.loc 1 173 0
  97 000e 534B     		ldr	r3, .L16
  98 0010 0F20     		mov	r0, #15
  99 0012 191C     		mov	r1, r3
 100 0014 FFF7FEFF 		bl	CyIntSetVector
 174:.\Generated_Source\PSoC4/ADC_SAP.c ****     #endif   /* End ADC_SAP_IRQ_REMOVE */
 175:.\Generated_Source\PSoC4/ADC_SAP.c **** 
 176:.\Generated_Source\PSoC4/ADC_SAP.c ****     /* Init SAR and MUX registers */
 177:.\Generated_Source\PSoC4/ADC_SAP.c ****     ADC_SAP_SAR_CHAN_EN_REG = ADC_SAP_DEFAULT_EN_CHANNELS;
 101              		.loc 1 177 0
 102 0018 514B     		ldr	r3, .L16+4
 103 001a 0122     		mov	r2, #1
 104 001c 1A60     		str	r2, [r3]
 178:.\Generated_Source\PSoC4/ADC_SAP.c ****     ADC_SAP_SAR_CTRL_REG |= ADC_SAP_DEFAULT_CTRL_REG_CFG | 
 179:.\Generated_Source\PSoC4/ADC_SAP.c ****         /* Enable the SAR internal pump when global pump is enabled */
 180:.\Generated_Source\PSoC4/ADC_SAP.c ****         (((ADC_SAP_PUMP_CTRL_REG & ADC_SAP_PUMP_CTRL_ENABLED) != 0u) ? 
 105              		.loc 1 180 0
ARM GAS  C:\Users\zpstrwy\AppData\Local\Temp\cc1GCVkd.s 			page 6


 106 001e 514B     		ldr	r3, .L16+8
 107 0020 1B68     		ldr	r3, [r3]
 178:.\Generated_Source\PSoC4/ADC_SAP.c ****     ADC_SAP_SAR_CTRL_REG |= ADC_SAP_DEFAULT_CTRL_REG_CFG | 
 108              		.loc 1 178 0
 109 0022 002B     		cmp	r3, #0
 110 0024 01DA     		bge	.L6
 178:.\Generated_Source\PSoC4/ADC_SAP.c ****     ADC_SAP_SAR_CTRL_REG |= ADC_SAP_DEFAULT_CTRL_REG_CFG | 
 111              		.loc 1 178 0 is_stmt 0 discriminator 1
 112 0026 5049     		ldr	r1, .L16+12
 113 0028 00E0     		b	.L7
 114              	.L6:
 178:.\Generated_Source\PSoC4/ADC_SAP.c ****     ADC_SAP_SAR_CTRL_REG |= ADC_SAP_DEFAULT_CTRL_REG_CFG | 
 115              		.loc 1 178 0 discriminator 2
 116 002a 5049     		ldr	r1, .L16+16
 117              	.L7:
 178:.\Generated_Source\PSoC4/ADC_SAP.c ****     ADC_SAP_SAR_CTRL_REG |= ADC_SAP_DEFAULT_CTRL_REG_CFG | 
 118              		.loc 1 178 0 discriminator 4
 119 002c 504B     		ldr	r3, .L16+20
 120 002e 504A     		ldr	r2, .L16+20
 121 0030 1268     		ldr	r2, [r2]
 122 0032 0A43     		orr	r2, r1
 123 0034 1A60     		str	r2, [r3]
 181:.\Generated_Source\PSoC4/ADC_SAP.c ****         ADC_SAP_BOOSTPUMP_EN : 0u);
 182:.\Generated_Source\PSoC4/ADC_SAP.c ****     ADC_SAP_SAR_SAMPLE_CTRL_REG = ADC_SAP_DEFAULT_SAMPLE_CTRL_REG_CFG;
 124              		.loc 1 182 0 is_stmt 1 discriminator 4
 125 0036 4F4B     		ldr	r3, .L16+24
 126 0038 4F4A     		ldr	r2, .L16+28
 127 003a 1A60     		str	r2, [r3]
 183:.\Generated_Source\PSoC4/ADC_SAP.c ****     ADC_SAP_SAR_RANGE_THRES_REG = ADC_SAP_DEFAULT_RANGE_THRES_REG_CFG;
 128              		.loc 1 183 0 discriminator 4
 129 003c 4F4B     		ldr	r3, .L16+32
 130 003e 504A     		ldr	r2, .L16+36
 131 0040 1A60     		str	r2, [r3]
 184:.\Generated_Source\PSoC4/ADC_SAP.c ****     ADC_SAP_SAR_RANGE_COND_REG  = ADC_SAP_COMPARE_MODE;
 132              		.loc 1 184 0 discriminator 4
 133 0042 504B     		ldr	r3, .L16+40
 134 0044 0022     		mov	r2, #0
 135 0046 1A60     		str	r2, [r3]
 185:.\Generated_Source\PSoC4/ADC_SAP.c ****     ADC_SAP_SAR_SAMPLE_TIME01_REG = ADC_SAP_DEFAULT_SAMPLE_TIME01_REG_CFG;
 136              		.loc 1 185 0 discriminator 4
 137 0048 4F4B     		ldr	r3, .L16+44
 138 004a 504A     		ldr	r2, .L16+48
 139 004c 1A60     		str	r2, [r3]
 186:.\Generated_Source\PSoC4/ADC_SAP.c ****     ADC_SAP_SAR_SAMPLE_TIME23_REG = ADC_SAP_DEFAULT_SAMPLE_TIME23_REG_CFG;
 140              		.loc 1 186 0 discriminator 4
 141 004e 504B     		ldr	r3, .L16+52
 142 0050 4E4A     		ldr	r2, .L16+48
 143 0052 1A60     		str	r2, [r3]
 187:.\Generated_Source\PSoC4/ADC_SAP.c ****     
 188:.\Generated_Source\PSoC4/ADC_SAP.c ****     /* Connect Vm to VSSA when even one channel is single-ended or multiple channels configured */
 189:.\Generated_Source\PSoC4/ADC_SAP.c ****     #if(ADC_SAP_DEFAULT_MUX_SWITCH0 != 0u)
 190:.\Generated_Source\PSoC4/ADC_SAP.c ****         ADC_SAP_MUX_SWITCH0_REG |= ADC_SAP_DEFAULT_MUX_SWITCH0;
 144              		.loc 1 190 0 discriminator 4
 145 0054 4F4B     		ldr	r3, .L16+56
 146 0056 4F4A     		ldr	r2, .L16+56
 147 0058 1268     		ldr	r2, [r2]
 148 005a 8021     		mov	r1, #128
ARM GAS  C:\Users\zpstrwy\AppData\Local\Temp\cc1GCVkd.s 			page 7


 149 005c 4902     		lsl	r1, r1, #9
 150 005e 0A43     		orr	r2, r1
 151 0060 1A60     		str	r2, [r3]
 191:.\Generated_Source\PSoC4/ADC_SAP.c ****         /* Set MUX_HW_CTRL_VSSA in MUX_SWITCH_HW_CTRL when multiple channels enabled */
 192:.\Generated_Source\PSoC4/ADC_SAP.c ****         #if(ADC_SAP_TOTAL_CHANNELS_NUM > 1u)
 193:.\Generated_Source\PSoC4/ADC_SAP.c ****             ADC_SAP_MUX_SWITCH_HW_CTRL_REG |= ADC_SAP_DEFAULT_MUX_SWITCH0;
 194:.\Generated_Source\PSoC4/ADC_SAP.c ****         #endif /* ADC_SAP_TOTAL_CHANNELS_NUM > 1u */
 195:.\Generated_Source\PSoC4/ADC_SAP.c ****     #endif /*ADC_SAP_CHANNELS_MODE !=0 */
 196:.\Generated_Source\PSoC4/ADC_SAP.c **** 
 197:.\Generated_Source\PSoC4/ADC_SAP.c ****     ADC_SAP_SAR_SATURATE_INTR_MASK_REG = 0u;
 152              		.loc 1 197 0 discriminator 4
 153 0062 4D4B     		ldr	r3, .L16+60
 154 0064 0022     		mov	r2, #0
 155 0066 1A60     		str	r2, [r3]
 198:.\Generated_Source\PSoC4/ADC_SAP.c ****     ADC_SAP_SAR_RANGE_INTR_MASK_REG = 0u;
 156              		.loc 1 198 0 discriminator 4
 157 0068 4C4B     		ldr	r3, .L16+64
 158 006a 0022     		mov	r2, #0
 159 006c 1A60     		str	r2, [r3]
 199:.\Generated_Source\PSoC4/ADC_SAP.c ****     ADC_SAP_SAR_INTR_MASK_REG = ADC_SAP_SAR_INTR_MASK;
 160              		.loc 1 199 0 discriminator 4
 161 006e 4C4B     		ldr	r3, .L16+68
 162 0070 0122     		mov	r2, #1
 163 0072 1A60     		str	r2, [r3]
 200:.\Generated_Source\PSoC4/ADC_SAP.c **** 
 201:.\Generated_Source\PSoC4/ADC_SAP.c ****     #if(ADC_SAP_CY_SAR_IP_VER == ADC_SAP_CY_SAR_IP_VER0)
 202:.\Generated_Source\PSoC4/ADC_SAP.c ****         ADC_SAP_ANA_TRIM_REG = ADC_SAP_TRIM_COEF;
 203:.\Generated_Source\PSoC4/ADC_SAP.c ****     #endif /* (ADC_SAP_CY_SAR_IP_VER == ADC_SAP_CY_SAR_IP_VER0) */
 204:.\Generated_Source\PSoC4/ADC_SAP.c **** 
 205:.\Generated_Source\PSoC4/ADC_SAP.c ****     /* Read and modify default configuration based on characterization */
 206:.\Generated_Source\PSoC4/ADC_SAP.c ****     tmpRegVal = ADC_SAP_SAR_DFT_CTRL_REG;
 164              		.loc 1 206 0 discriminator 4
 165 0074 4B4B     		ldr	r3, .L16+72
 166 0076 1B68     		ldr	r3, [r3]
 167 0078 7B60     		str	r3, [r7, #4]
 207:.\Generated_Source\PSoC4/ADC_SAP.c ****     tmpRegVal &= (uint32)~ADC_SAP_DCEN;
 168              		.loc 1 207 0 discriminator 4
 169 007a 7B68     		ldr	r3, [r7, #4]
 170 007c 4A4A     		ldr	r2, .L16+76
 171 007e 1340     		and	r3, r2
 172 0080 7B60     		str	r3, [r7, #4]
 208:.\Generated_Source\PSoC4/ADC_SAP.c ****     
 209:.\Generated_Source\PSoC4/ADC_SAP.c ****     #if(ADC_SAP_CY_SAR_IP_VER == ADC_SAP_CY_SAR_IP_VER0)
 210:.\Generated_Source\PSoC4/ADC_SAP.c ****         #if(ADC_SAP_NOMINAL_CLOCK_FREQ > (ADC_SAP_MAX_FREQUENCY / 2))
 211:.\Generated_Source\PSoC4/ADC_SAP.c ****             tmpRegVal |= ADC_SAP_SEL_CSEL_DFT_CHAR;
 212:.\Generated_Source\PSoC4/ADC_SAP.c ****         #else  /* clock speed < 9 Mhz */
 213:.\Generated_Source\PSoC4/ADC_SAP.c ****             tmpRegVal |= ADC_SAP_DLY_INC;
 214:.\Generated_Source\PSoC4/ADC_SAP.c ****         #endif /* clock speed > 9 Mhz */
 215:.\Generated_Source\PSoC4/ADC_SAP.c ****     #else
 216:.\Generated_Source\PSoC4/ADC_SAP.c ****         #if ((ADC_SAP_DEFAULT_VREF_SEL == ADC_SAP__INTERNAL1024) || \
 217:.\Generated_Source\PSoC4/ADC_SAP.c ****              (ADC_SAP_DEFAULT_VREF_SEL == ADC_SAP__INTERNALVREF))
 218:.\Generated_Source\PSoC4/ADC_SAP.c ****             tmpRegVal |= ADC_SAP_DLY_INC;
 219:.\Generated_Source\PSoC4/ADC_SAP.c ****         #else
 220:.\Generated_Source\PSoC4/ADC_SAP.c ****             tmpRegVal |= ADC_SAP_DCEN;
 173              		.loc 1 220 0 discriminator 4
 174 0082 7B68     		ldr	r3, [r7, #4]
 175 0084 8022     		mov	r2, #128
ARM GAS  C:\Users\zpstrwy\AppData\Local\Temp\cc1GCVkd.s 			page 8


 176 0086 9205     		lsl	r2, r2, #22
 177 0088 1343     		orr	r3, r2
 178 008a 7B60     		str	r3, [r7, #4]
 221:.\Generated_Source\PSoC4/ADC_SAP.c ****             tmpRegVal &= (uint32)~ADC_SAP_DLY_INC;
 179              		.loc 1 221 0 discriminator 4
 180 008c 7B68     		ldr	r3, [r7, #4]
 181 008e 0122     		mov	r2, #1
 182 0090 9343     		bic	r3, r2
 183 0092 7B60     		str	r3, [r7, #4]
 222:.\Generated_Source\PSoC4/ADC_SAP.c ****         #endif /* ((ADC_SAP_DEFAULT_VREF_SEL == ADC_SAP__INTERNAL1024) || \
 223:.\Generated_Source\PSoC4/ADC_SAP.c ****                    (ADC_SAP_DEFAULT_VREF_SEL == ADC_SAP__INTERNALVREF)) */
 224:.\Generated_Source\PSoC4/ADC_SAP.c ****     #endif /* (ADC_SAP_CY_SAR_IP_VER == ADC_SAP_CY_SAR_IP_VER0) */
 225:.\Generated_Source\PSoC4/ADC_SAP.c ****     
 226:.\Generated_Source\PSoC4/ADC_SAP.c ****     ADC_SAP_SAR_DFT_CTRL_REG = tmpRegVal;
 184              		.loc 1 226 0 discriminator 4
 185 0094 434B     		ldr	r3, .L16+72
 186 0096 7A68     		ldr	r2, [r7, #4]
 187 0098 1A60     		str	r2, [r3]
 227:.\Generated_Source\PSoC4/ADC_SAP.c **** 
 228:.\Generated_Source\PSoC4/ADC_SAP.c ****     #if(ADC_SAP_MAX_RESOLUTION != ADC_SAP_RESOLUTION_12)
 229:.\Generated_Source\PSoC4/ADC_SAP.c ****         ADC_SAP_WOUNDING_REG = ADC_SAP_ALT_WOUNDING;
 230:.\Generated_Source\PSoC4/ADC_SAP.c ****     #endif /* ADC_SAP_MAX_RESOLUTION != ADC_SAP_RESOLUTION_12 */
 231:.\Generated_Source\PSoC4/ADC_SAP.c **** 
 232:.\Generated_Source\PSoC4/ADC_SAP.c ****     for(chNum = 0u; chNum < ADC_SAP_TOTAL_CHANNELS_NUM; chNum++)
 188              		.loc 1 232 0 discriminator 4
 189 009a 0023     		mov	r3, #0
 190 009c FB60     		str	r3, [r7, #12]
 191 009e 57E0     		b	.L8
 192              	.L15:
 233:.\Generated_Source\PSoC4/ADC_SAP.c ****     {
 234:.\Generated_Source\PSoC4/ADC_SAP.c ****         tmpRegVal = (ADC_SAP_channelsConfig[chNum] & ADC_SAP_CHANNEL_CONFIG_MASK);
 193              		.loc 1 234 0
 194 00a0 0022     		mov	r2, #0
 195 00a2 DC23     		mov	r3, #220
 196 00a4 9B01     		lsl	r3, r3, #6
 197 00a6 1340     		and	r3, r2
 198 00a8 7B60     		str	r3, [r7, #4]
 235:.\Generated_Source\PSoC4/ADC_SAP.c ****         #if(ADC_SAP_TOTAL_CHANNELS_NUM > 1u)
 236:.\Generated_Source\PSoC4/ADC_SAP.c ****             tmpRegVal |= ADC_SAP_InputsPlacement[chNum];
 237:.\Generated_Source\PSoC4/ADC_SAP.c ****         #endif /* End ADC_SAP_TOTAL_CHANNELS_NUM > 1u */
 238:.\Generated_Source\PSoC4/ADC_SAP.c ****         
 239:.\Generated_Source\PSoC4/ADC_SAP.c ****         
 240:.\Generated_Source\PSoC4/ADC_SAP.c ****         /* When the part is limited to 10-bit then the SUB_RESOLUTION bit
 241:.\Generated_Source\PSoC4/ADC_SAP.c ****         *  will be ignored and the RESOLUTION bit selects between 10-bit
 242:.\Generated_Source\PSoC4/ADC_SAP.c ****         *  (0) and 8-bit (1) resolution.
 243:.\Generated_Source\PSoC4/ADC_SAP.c ****         */
 244:.\Generated_Source\PSoC4/ADC_SAP.c ****         #if((ADC_SAP_MAX_RESOLUTION != ADC_SAP_RESOLUTION_12) && \
 245:.\Generated_Source\PSoC4/ADC_SAP.c ****             (ADC_SAP_ALT_WOUNDING == ADC_SAP_WOUNDING_10BIT))
 246:.\Generated_Source\PSoC4/ADC_SAP.c ****             tmpRegVal &= (uint32)(~ADC_SAP_ALT_RESOLUTION_ON);
 247:.\Generated_Source\PSoC4/ADC_SAP.c ****         #endif /* ADC_SAP_MAX_RESOLUTION != ADC_SAP_RESOLUTION_12 */
 248:.\Generated_Source\PSoC4/ADC_SAP.c **** 
 249:.\Generated_Source\PSoC4/ADC_SAP.c ****         #if(ADC_SAP_INJ_CHANNEL_ENABLED)
 250:.\Generated_Source\PSoC4/ADC_SAP.c ****         if(chNum < ADC_SAP_SEQUENCED_CHANNELS_NUM)
 251:.\Generated_Source\PSoC4/ADC_SAP.c ****         #endif /* ADC_SAP_INJ_CHANNEL_ENABLED */
 252:.\Generated_Source\PSoC4/ADC_SAP.c ****         {
 253:.\Generated_Source\PSoC4/ADC_SAP.c ****             CY_SET_REG32((reg32 *)(ADC_SAP_SAR_CHAN_CONFIG_IND + (uint32)(chNum << 2)), tmpRegVal);
 199              		.loc 1 253 0
ARM GAS  C:\Users\zpstrwy\AppData\Local\Temp\cc1GCVkd.s 			page 9


 200 00aa FB68     		ldr	r3, [r7, #12]
 201 00ac 9B00     		lsl	r3, r3, #2
 202 00ae 3F4A     		ldr	r2, .L16+80
 203 00b0 9446     		mov	ip, r2
 204 00b2 6344     		add	r3, r3, ip
 205 00b4 7A68     		ldr	r2, [r7, #4]
 206 00b6 1A60     		str	r2, [r3]
 254:.\Generated_Source\PSoC4/ADC_SAP.c **** 
 255:.\Generated_Source\PSoC4/ADC_SAP.c ****             if((ADC_SAP_channelsConfig[chNum] & ADC_SAP_IS_SATURATE_EN_MASK) != 0u)
 207              		.loc 1 255 0
 208 00b8 0022     		mov	r2, #0
 209 00ba 0123     		mov	r3, #1
 210 00bc 1340     		and	r3, r2
 211 00be 09D0     		beq	.L9
 256:.\Generated_Source\PSoC4/ADC_SAP.c ****             {
 257:.\Generated_Source\PSoC4/ADC_SAP.c ****                 ADC_SAP_SAR_SATURATE_INTR_MASK_REG |= (uint16)((uint16)1 << chNum);
 212              		.loc 1 257 0
 213 00c0 354B     		ldr	r3, .L16+60
 214 00c2 354A     		ldr	r2, .L16+60
 215 00c4 1268     		ldr	r2, [r2]
 216 00c6 F968     		ldr	r1, [r7, #12]
 217 00c8 0120     		mov	r0, #1
 218 00ca 8840     		lsl	r0, r0, r1
 219 00cc 011C     		mov	r1, r0
 220 00ce 89B2     		uxth	r1, r1
 221 00d0 0A43     		orr	r2, r1
 222 00d2 1A60     		str	r2, [r3]
 223              	.L9:
 258:.\Generated_Source\PSoC4/ADC_SAP.c ****             }
 259:.\Generated_Source\PSoC4/ADC_SAP.c **** 
 260:.\Generated_Source\PSoC4/ADC_SAP.c ****             if((ADC_SAP_channelsConfig[chNum] & ADC_SAP_IS_RANGE_CTRL_EN_MASK) != 0u)
 224              		.loc 1 260 0
 225 00d4 0022     		mov	r2, #0
 226 00d6 0223     		mov	r3, #2
 227 00d8 1340     		and	r3, r2
 228 00da 09D0     		beq	.L10
 261:.\Generated_Source\PSoC4/ADC_SAP.c ****             {
 262:.\Generated_Source\PSoC4/ADC_SAP.c ****                 ADC_SAP_SAR_RANGE_INTR_MASK_REG |= (uint16)((uint16)1 << chNum);
 229              		.loc 1 262 0
 230 00dc 2F4B     		ldr	r3, .L16+64
 231 00de 2F4A     		ldr	r2, .L16+64
 232 00e0 1268     		ldr	r2, [r2]
 233 00e2 F968     		ldr	r1, [r7, #12]
 234 00e4 0120     		mov	r0, #1
 235 00e6 8840     		lsl	r0, r0, r1
 236 00e8 011C     		mov	r1, r0
 237 00ea 89B2     		uxth	r1, r1
 238 00ec 0A43     		orr	r2, r1
 239 00ee 1A60     		str	r2, [r3]
 240              	.L10:
 263:.\Generated_Source\PSoC4/ADC_SAP.c ****             }
 264:.\Generated_Source\PSoC4/ADC_SAP.c ****         }
 265:.\Generated_Source\PSoC4/ADC_SAP.c ****         #if(ADC_SAP_INJ_CHANNEL_ENABLED)
 266:.\Generated_Source\PSoC4/ADC_SAP.c ****             else
 267:.\Generated_Source\PSoC4/ADC_SAP.c ****             {
 268:.\Generated_Source\PSoC4/ADC_SAP.c ****                 CY_SET_REG32(ADC_SAP_SAR_INJ_CHAN_CONFIG_PTR, tmpRegVal | ADC_SAP_INJ_TAILGATING);
 269:.\Generated_Source\PSoC4/ADC_SAP.c **** 
ARM GAS  C:\Users\zpstrwy\AppData\Local\Temp\cc1GCVkd.s 			page 10


 270:.\Generated_Source\PSoC4/ADC_SAP.c ****                 if((ADC_SAP_channelsConfig[chNum] & ADC_SAP_IS_SATURATE_EN_MASK) != 0u)
 271:.\Generated_Source\PSoC4/ADC_SAP.c ****                 {
 272:.\Generated_Source\PSoC4/ADC_SAP.c ****                     ADC_SAP_SAR_INTR_MASK_REG |= ADC_SAP_INJ_SATURATE_MASK;
 273:.\Generated_Source\PSoC4/ADC_SAP.c ****                 }
 274:.\Generated_Source\PSoC4/ADC_SAP.c **** 
 275:.\Generated_Source\PSoC4/ADC_SAP.c ****                 if((ADC_SAP_channelsConfig[chNum] & ADC_SAP_IS_RANGE_CTRL_EN_MASK) != 0u)
 276:.\Generated_Source\PSoC4/ADC_SAP.c ****                 {
 277:.\Generated_Source\PSoC4/ADC_SAP.c ****                     ADC_SAP_SAR_INTR_MASK_REG |= ADC_SAP_INJ_RANGE_MASK;
 278:.\Generated_Source\PSoC4/ADC_SAP.c ****                 }
 279:.\Generated_Source\PSoC4/ADC_SAP.c ****             }
 280:.\Generated_Source\PSoC4/ADC_SAP.c ****         #endif /* ADC_SAP_INJ_CHANNEL_ENABLED */
 281:.\Generated_Source\PSoC4/ADC_SAP.c **** 
 282:.\Generated_Source\PSoC4/ADC_SAP.c ****         if((ADC_SAP_channelsConfig[chNum] & ADC_SAP_ALT_RESOLUTION_ON) != 0u)
 241              		.loc 1 282 0
 242 00f0 0022     		mov	r2, #0
 243 00f2 8023     		mov	r3, #128
 244 00f4 9B00     		lsl	r3, r3, #2
 245 00f6 1340     		and	r3, r2
 246 00f8 03D0     		beq	.L11
 283:.\Generated_Source\PSoC4/ADC_SAP.c ****         {
 284:.\Generated_Source\PSoC4/ADC_SAP.c ****                counts = (int32)ADC_SAP_DEFAULT_MAX_WRK_ALT;
 247              		.loc 1 284 0
 248 00fa 8023     		mov	r3, #128
 249 00fc 5B00     		lsl	r3, r3, #1
 250 00fe BB60     		str	r3, [r7, #8]
 251 0100 02E0     		b	.L12
 252              	.L11:
 285:.\Generated_Source\PSoC4/ADC_SAP.c ****         }
 286:.\Generated_Source\PSoC4/ADC_SAP.c ****         else
 287:.\Generated_Source\PSoC4/ADC_SAP.c ****         {
 288:.\Generated_Source\PSoC4/ADC_SAP.c ****                counts = (int32)ADC_SAP_SAR_WRK_MAX_12BIT;
 253              		.loc 1 288 0
 254 0102 8023     		mov	r3, #128
 255 0104 5B01     		lsl	r3, r3, #5
 256 0106 BB60     		str	r3, [r7, #8]
 257              	.L12:
 289:.\Generated_Source\PSoC4/ADC_SAP.c ****         }
 290:.\Generated_Source\PSoC4/ADC_SAP.c **** 
 291:.\Generated_Source\PSoC4/ADC_SAP.c ****         if((ADC_SAP_channelsConfig[chNum] & ADC_SAP_DIFFERENTIAL_EN) == 0u)
 258              		.loc 1 291 0
 259 0108 0022     		mov	r2, #0
 260 010a 8023     		mov	r3, #128
 261 010c 5B00     		lsl	r3, r3, #1
 262 010e 1340     		and	r3, r2
 263 0110 05D1     		bne	.L13
 292:.\Generated_Source\PSoC4/ADC_SAP.c ****         {
 293:.\Generated_Source\PSoC4/ADC_SAP.c ****             #if((ADC_SAP_DEFAULT_SE_RESULT_FORMAT_SEL == ADC_SAP__FSIGNED) && \
 294:.\Generated_Source\PSoC4/ADC_SAP.c ****                 (ADC_SAP_DEFAULT_NEG_INPUT_SEL == ADC_SAP__VREF))
 295:.\Generated_Source\PSoC4/ADC_SAP.c ****                 /* Set offset to the minus half scale to convert results to unsigned format */
 296:.\Generated_Source\PSoC4/ADC_SAP.c ****                 ADC_SAP_offset[chNum] = (int16)(counts / -2);
 297:.\Generated_Source\PSoC4/ADC_SAP.c ****             #else
 298:.\Generated_Source\PSoC4/ADC_SAP.c ****                 ADC_SAP_offset[chNum] = 0;
 264              		.loc 1 298 0
 265 0112 274B     		ldr	r3, .L16+84
 266 0114 FA68     		ldr	r2, [r7, #12]
 267 0116 5200     		lsl	r2, r2, #1
 268 0118 0021     		mov	r1, #0
ARM GAS  C:\Users\zpstrwy\AppData\Local\Temp\cc1GCVkd.s 			page 11


 269 011a D152     		strh	r1, [r2, r3]
 270 011c 04E0     		b	.L14
 271              	.L13:
 299:.\Generated_Source\PSoC4/ADC_SAP.c ****             #endif /* end DEFAULT_SE_RESULT_FORMAT_SEL == ADC_SAP__FSIGNED */
 300:.\Generated_Source\PSoC4/ADC_SAP.c ****         }
 301:.\Generated_Source\PSoC4/ADC_SAP.c ****         else    /* Differential channel */
 302:.\Generated_Source\PSoC4/ADC_SAP.c ****         {
 303:.\Generated_Source\PSoC4/ADC_SAP.c ****             #if(ADC_SAP_DEFAULT_DIFF_RESULT_FORMAT_SEL == ADC_SAP__FUNSIGNED)
 304:.\Generated_Source\PSoC4/ADC_SAP.c ****                 /* Set offset to the half scale to convert results to signed format */
 305:.\Generated_Source\PSoC4/ADC_SAP.c ****                 ADC_SAP_offset[chNum] = (int16)(counts / 2);
 306:.\Generated_Source\PSoC4/ADC_SAP.c ****             #else
 307:.\Generated_Source\PSoC4/ADC_SAP.c ****                 ADC_SAP_offset[chNum] = 0;
 272              		.loc 1 307 0
 273 011e 244B     		ldr	r3, .L16+84
 274 0120 FA68     		ldr	r2, [r7, #12]
 275 0122 5200     		lsl	r2, r2, #1
 276 0124 0021     		mov	r1, #0
 277 0126 D152     		strh	r1, [r2, r3]
 278              	.L14:
 308:.\Generated_Source\PSoC4/ADC_SAP.c ****             #endif /* end ADC_SAP_DEFAULT_DIFF_RESULT_FORMAT_SEL == ADC_SAP__FUNSIGNED */
 309:.\Generated_Source\PSoC4/ADC_SAP.c ****         }
 310:.\Generated_Source\PSoC4/ADC_SAP.c ****         /* Calculate gain in counts per 10 volts with rounding */
 311:.\Generated_Source\PSoC4/ADC_SAP.c ****         ADC_SAP_countsPer10Volt[chNum] = (int16)(((counts * ADC_SAP_10MV_COUNTS) +
 279              		.loc 1 311 0 discriminator 2
 280 0128 BB68     		ldr	r3, [r7, #8]
 281 012a 224A     		ldr	r2, .L16+88
 282 012c 5343     		mul	r3, r2
 283 012e 224A     		ldr	r2, .L16+92
 284 0130 9446     		mov	ip, r2
 285 0132 6344     		add	r3, r3, ip
 312:.\Generated_Source\PSoC4/ADC_SAP.c ****                             ADC_SAP_DEFAULT_VREF_MV_VALUE) / (ADC_SAP_DEFAULT_VREF_MV_VALUE * 2));
 286              		.loc 1 312 0 discriminator 2
 287 0134 181C     		mov	r0, r3
 288 0136 2149     		ldr	r1, .L16+96
 289 0138 FFF7FEFF 		bl	__aeabi_idiv
 290 013c 031C     		mov	r3, r0
 311:.\Generated_Source\PSoC4/ADC_SAP.c ****                             ADC_SAP_DEFAULT_VREF_MV_VALUE) / (ADC_SAP_DEFAULT_VREF_MV_VALUE * 2));
 291              		.loc 1 311 0 discriminator 2
 292 013e 9BB2     		uxth	r3, r3
 293 0140 19B2     		sxth	r1, r3
 294 0142 1F4B     		ldr	r3, .L16+100
 295 0144 FA68     		ldr	r2, [r7, #12]
 296 0146 9200     		lsl	r2, r2, #2
 297 0148 D150     		str	r1, [r2, r3]
 232:.\Generated_Source\PSoC4/ADC_SAP.c ****     {
 298              		.loc 1 232 0 discriminator 2
 299 014a FB68     		ldr	r3, [r7, #12]
 300 014c 0133     		add	r3, r3, #1
 301 014e FB60     		str	r3, [r7, #12]
 302              	.L8:
 232:.\Generated_Source\PSoC4/ADC_SAP.c ****     {
 303              		.loc 1 232 0 is_stmt 0 discriminator 1
 304 0150 FB68     		ldr	r3, [r7, #12]
 305 0152 002B     		cmp	r3, #0
 306 0154 A4D0     		beq	.L15
 313:.\Generated_Source\PSoC4/ADC_SAP.c ****     }
 314:.\Generated_Source\PSoC4/ADC_SAP.c **** }
ARM GAS  C:\Users\zpstrwy\AppData\Local\Temp\cc1GCVkd.s 			page 12


 307              		.loc 1 314 0 is_stmt 1
 308 0156 BD46     		mov	sp, r7
 309 0158 04B0     		add	sp, sp, #16
 310              		@ sp needed
 311 015a 80BD     		pop	{r7, pc}
 312              	.L17:
 313              		.align	2
 314              	.L16:
 315 015c 00000000 		.word	ADC_SAP_ISR
 316 0160 20003A40 		.word	1077542944
 317 0164 80033A40 		.word	1077543808
 318 0168 70021050 		.word	1343226480
 319 016c 70020050 		.word	1342177904
 320 0170 00003A40 		.word	1077542912
 321 0174 04003A40 		.word	1077542916
 322 0178 9C000A80 		.word	-2146828132
 323 017c 18003A40 		.word	1077542936
 324 0180 0000FF07 		.word	134152192
 325 0184 1C003A40 		.word	1077542940
 326 0188 10003A40 		.word	1077542928
 327 018c 04000400 		.word	262148
 328 0190 14003A40 		.word	1077542932
 329 0194 00033A40 		.word	1077543680
 330 0198 28023A40 		.word	1077543464
 331 019c 38023A40 		.word	1077543480
 332 01a0 18023A40 		.word	1077543448
 333 01a4 30003A40 		.word	1077542960
 334 01a8 FFFFFFDF 		.word	-536870913
 335 01ac 80003A40 		.word	1077543040
 336 01b0 00000000 		.word	ADC_SAP_offset
 337 01b4 10270000 		.word	10000
 338 01b8 E40C0000 		.word	3300
 339 01bc C8190000 		.word	6600
 340 01c0 00000000 		.word	ADC_SAP_countsPer10Volt
 341              		.cfi_endproc
 342              	.LFE3:
 343              		.size	ADC_SAP_Init, .-ADC_SAP_Init
 344              		.section	.text.ADC_SAP_Enable,"ax",%progbits
 345              		.align	2
 346              		.global	ADC_SAP_Enable
 347              		.code	16
 348              		.thumb_func
 349              		.type	ADC_SAP_Enable, %function
 350              	ADC_SAP_Enable:
 351              	.LFB4:
 315:.\Generated_Source\PSoC4/ADC_SAP.c **** 
 316:.\Generated_Source\PSoC4/ADC_SAP.c **** /*******************************************************************************
 317:.\Generated_Source\PSoC4/ADC_SAP.c **** * Function Name: ADC_SAR_1_Enable
 318:.\Generated_Source\PSoC4/ADC_SAP.c **** ********************************************************************************
 319:.\Generated_Source\PSoC4/ADC_SAP.c **** *
 320:.\Generated_Source\PSoC4/ADC_SAP.c **** * Summary:
 321:.\Generated_Source\PSoC4/ADC_SAP.c **** *  Enables the clock and analog power for SAR ADC.
 322:.\Generated_Source\PSoC4/ADC_SAP.c **** *
 323:.\Generated_Source\PSoC4/ADC_SAP.c **** * Parameters:
 324:.\Generated_Source\PSoC4/ADC_SAP.c **** *  None.
 325:.\Generated_Source\PSoC4/ADC_SAP.c **** *
 326:.\Generated_Source\PSoC4/ADC_SAP.c **** * Return:
ARM GAS  C:\Users\zpstrwy\AppData\Local\Temp\cc1GCVkd.s 			page 13


 327:.\Generated_Source\PSoC4/ADC_SAP.c **** *  None.
 328:.\Generated_Source\PSoC4/ADC_SAP.c **** *
 329:.\Generated_Source\PSoC4/ADC_SAP.c **** *******************************************************************************/
 330:.\Generated_Source\PSoC4/ADC_SAP.c **** void ADC_SAP_Enable(void)
 331:.\Generated_Source\PSoC4/ADC_SAP.c **** {
 352              		.loc 1 331 0
 353              		.cfi_startproc
 354 0000 80B5     		push	{r7, lr}
 355              		.cfi_def_cfa_offset 8
 356              		.cfi_offset 7, -8
 357              		.cfi_offset 14, -4
 358 0002 00AF     		add	r7, sp, #0
 359              		.cfi_def_cfa_register 7
 332:.\Generated_Source\PSoC4/ADC_SAP.c ****     if (0u == (ADC_SAP_SAR_CTRL_REG & ADC_SAP_ENABLE))
 360              		.loc 1 332 0
 361 0004 0A4B     		ldr	r3, .L21
 362 0006 1B68     		ldr	r3, [r3]
 363 0008 002B     		cmp	r3, #0
 364 000a 0EDB     		blt	.L18
 333:.\Generated_Source\PSoC4/ADC_SAP.c ****     {
 334:.\Generated_Source\PSoC4/ADC_SAP.c ****         #if(ADC_SAP_CY_SAR_IP_VER != ADC_SAP_CY_SAR_IP_VER0)
 335:.\Generated_Source\PSoC4/ADC_SAP.c **** 
 336:.\Generated_Source\PSoC4/ADC_SAP.c ****             while (0u != (ADC_SAP_SAR_STATUS_REG & ADC_SAP_STATUS_BUSY))
 365              		.loc 1 336 0
 366 000c C046     		mov	r8, r8
 367              	.L20:
 368              		.loc 1 336 0 is_stmt 0 discriminator 1
 369 000e 094B     		ldr	r3, .L21+4
 370 0010 1B68     		ldr	r3, [r3]
 371 0012 002B     		cmp	r3, #0
 372 0014 FBDB     		blt	.L20
 337:.\Generated_Source\PSoC4/ADC_SAP.c ****             {
 338:.\Generated_Source\PSoC4/ADC_SAP.c ****                 /* wait for SAR to go idle to avoid deadlock */
 339:.\Generated_Source\PSoC4/ADC_SAP.c ****             }
 340:.\Generated_Source\PSoC4/ADC_SAP.c ****         #endif /* (ADC_SAP_CY_SAR_IP_VER != ADC_SAP_CY_SAR_IP_VER0) */
 341:.\Generated_Source\PSoC4/ADC_SAP.c ****         
 342:.\Generated_Source\PSoC4/ADC_SAP.c ****         ADC_SAP_SAR_CTRL_REG |= ADC_SAP_ENABLE;
 373              		.loc 1 342 0 is_stmt 1
 374 0016 064B     		ldr	r3, .L21
 375 0018 054A     		ldr	r2, .L21
 376 001a 1268     		ldr	r2, [r2]
 377 001c 8021     		mov	r1, #128
 378 001e 0906     		lsl	r1, r1, #24
 379 0020 0A43     		orr	r2, r1
 380 0022 1A60     		str	r2, [r3]
 343:.\Generated_Source\PSoC4/ADC_SAP.c ****         
 344:.\Generated_Source\PSoC4/ADC_SAP.c ****         /* The block is ready to use 10 us after the enable signal is set high. */
 345:.\Generated_Source\PSoC4/ADC_SAP.c ****         CyDelayUs(ADC_SAP_10US_DELAY);         
 381              		.loc 1 345 0
 382 0024 0A20     		mov	r0, #10
 383 0026 FFF7FEFF 		bl	CyDelayUs
 384              	.L18:
 346:.\Generated_Source\PSoC4/ADC_SAP.c ****     }
 347:.\Generated_Source\PSoC4/ADC_SAP.c **** }
 385              		.loc 1 347 0
 386 002a BD46     		mov	sp, r7
 387              		@ sp needed
ARM GAS  C:\Users\zpstrwy\AppData\Local\Temp\cc1GCVkd.s 			page 14


 388 002c 80BD     		pop	{r7, pc}
 389              	.L22:
 390 002e C046     		.align	2
 391              	.L21:
 392 0030 00003A40 		.word	1077542912
 393 0034 08023A40 		.word	1077543432
 394              		.cfi_endproc
 395              	.LFE4:
 396              		.size	ADC_SAP_Enable, .-ADC_SAP_Enable
 397              		.section	.text.ADC_SAP_Stop,"ax",%progbits
 398              		.align	2
 399              		.global	ADC_SAP_Stop
 400              		.code	16
 401              		.thumb_func
 402              		.type	ADC_SAP_Stop, %function
 403              	ADC_SAP_Stop:
 404              	.LFB5:
 348:.\Generated_Source\PSoC4/ADC_SAP.c **** 
 349:.\Generated_Source\PSoC4/ADC_SAP.c **** 
 350:.\Generated_Source\PSoC4/ADC_SAP.c **** /*******************************************************************************
 351:.\Generated_Source\PSoC4/ADC_SAP.c **** * Function Name: ADC_SAP_Stop
 352:.\Generated_Source\PSoC4/ADC_SAP.c **** ********************************************************************************
 353:.\Generated_Source\PSoC4/ADC_SAP.c **** *
 354:.\Generated_Source\PSoC4/ADC_SAP.c **** * Summary:
 355:.\Generated_Source\PSoC4/ADC_SAP.c **** *  This function stops ADC conversions and puts the ADC into its lowest power
 356:.\Generated_Source\PSoC4/ADC_SAP.c **** *  mode.
 357:.\Generated_Source\PSoC4/ADC_SAP.c **** *
 358:.\Generated_Source\PSoC4/ADC_SAP.c **** * Parameters:
 359:.\Generated_Source\PSoC4/ADC_SAP.c **** *  None.
 360:.\Generated_Source\PSoC4/ADC_SAP.c **** *
 361:.\Generated_Source\PSoC4/ADC_SAP.c **** * Return:
 362:.\Generated_Source\PSoC4/ADC_SAP.c **** *  None.
 363:.\Generated_Source\PSoC4/ADC_SAP.c **** *
 364:.\Generated_Source\PSoC4/ADC_SAP.c **** *******************************************************************************/
 365:.\Generated_Source\PSoC4/ADC_SAP.c **** void ADC_SAP_Stop(void)
 366:.\Generated_Source\PSoC4/ADC_SAP.c **** {
 405              		.loc 1 366 0
 406              		.cfi_startproc
 407 0000 80B5     		push	{r7, lr}
 408              		.cfi_def_cfa_offset 8
 409              		.cfi_offset 7, -8
 410              		.cfi_offset 14, -4
 411 0002 00AF     		add	r7, sp, #0
 412              		.cfi_def_cfa_register 7
 367:.\Generated_Source\PSoC4/ADC_SAP.c ****     ADC_SAP_SAR_CTRL_REG &= (uint32)~ADC_SAP_ENABLE;
 413              		.loc 1 367 0
 414 0004 034B     		ldr	r3, .L24
 415 0006 034A     		ldr	r2, .L24
 416 0008 1268     		ldr	r2, [r2]
 417 000a 5200     		lsl	r2, r2, #1
 418 000c 5208     		lsr	r2, r2, #1
 419 000e 1A60     		str	r2, [r3]
 368:.\Generated_Source\PSoC4/ADC_SAP.c **** }
 420              		.loc 1 368 0
 421 0010 BD46     		mov	sp, r7
 422              		@ sp needed
 423 0012 80BD     		pop	{r7, pc}
ARM GAS  C:\Users\zpstrwy\AppData\Local\Temp\cc1GCVkd.s 			page 15


 424              	.L25:
 425              		.align	2
 426              	.L24:
 427 0014 00003A40 		.word	1077542912
 428              		.cfi_endproc
 429              	.LFE5:
 430              		.size	ADC_SAP_Stop, .-ADC_SAP_Stop
 431              		.section	.text.ADC_SAP_StartConvert,"ax",%progbits
 432              		.align	2
 433              		.global	ADC_SAP_StartConvert
 434              		.code	16
 435              		.thumb_func
 436              		.type	ADC_SAP_StartConvert, %function
 437              	ADC_SAP_StartConvert:
 438              	.LFB6:
 369:.\Generated_Source\PSoC4/ADC_SAP.c **** 
 370:.\Generated_Source\PSoC4/ADC_SAP.c **** 
 371:.\Generated_Source\PSoC4/ADC_SAP.c **** /*******************************************************************************
 372:.\Generated_Source\PSoC4/ADC_SAP.c **** * Function Name: ADC_SAP_StartConvert
 373:.\Generated_Source\PSoC4/ADC_SAP.c **** ********************************************************************************
 374:.\Generated_Source\PSoC4/ADC_SAP.c **** *
 375:.\Generated_Source\PSoC4/ADC_SAP.c **** * Summary:
 376:.\Generated_Source\PSoC4/ADC_SAP.c **** *  Description:
 377:.\Generated_Source\PSoC4/ADC_SAP.c **** *  For free running mode, this API starts the conversion process and it
 378:.\Generated_Source\PSoC4/ADC_SAP.c **** *  runs continuously.
 379:.\Generated_Source\PSoC4/ADC_SAP.c **** *
 380:.\Generated_Source\PSoC4/ADC_SAP.c **** *  In a triggered mode, this routine triggers every conversion by
 381:.\Generated_Source\PSoC4/ADC_SAP.c **** *  writing into the FW_TRIGGER bit in SAR_START_CTRL reg. In triggered mode,
 382:.\Generated_Source\PSoC4/ADC_SAP.c **** *  every conversion has to start by this API.
 383:.\Generated_Source\PSoC4/ADC_SAP.c **** *
 384:.\Generated_Source\PSoC4/ADC_SAP.c **** * Parameters:
 385:.\Generated_Source\PSoC4/ADC_SAP.c **** *  None.
 386:.\Generated_Source\PSoC4/ADC_SAP.c **** *
 387:.\Generated_Source\PSoC4/ADC_SAP.c **** * Return:
 388:.\Generated_Source\PSoC4/ADC_SAP.c **** *  None.
 389:.\Generated_Source\PSoC4/ADC_SAP.c **** *
 390:.\Generated_Source\PSoC4/ADC_SAP.c **** *******************************************************************************/
 391:.\Generated_Source\PSoC4/ADC_SAP.c **** void ADC_SAP_StartConvert(void)
 392:.\Generated_Source\PSoC4/ADC_SAP.c **** {
 439              		.loc 1 392 0
 440              		.cfi_startproc
 441 0000 80B5     		push	{r7, lr}
 442              		.cfi_def_cfa_offset 8
 443              		.cfi_offset 7, -8
 444              		.cfi_offset 14, -4
 445 0002 00AF     		add	r7, sp, #0
 446              		.cfi_def_cfa_register 7
 393:.\Generated_Source\PSoC4/ADC_SAP.c ****     #if(ADC_SAP_DEFAULT_SAMPLE_MODE_SEL == ADC_SAP__FREERUNNING)
 394:.\Generated_Source\PSoC4/ADC_SAP.c ****         ADC_SAP_SAR_SAMPLE_CTRL_REG |= ADC_SAP_CONTINUOUS_EN;
 395:.\Generated_Source\PSoC4/ADC_SAP.c ****     #else /* Firmware trigger */
 396:.\Generated_Source\PSoC4/ADC_SAP.c ****         ADC_SAP_SAR_START_CTRL_REG = ADC_SAP_FW_TRIGGER;
 447              		.loc 1 396 0
 448 0004 024B     		ldr	r3, .L27
 449 0006 0122     		mov	r2, #1
 450 0008 1A60     		str	r2, [r3]
 397:.\Generated_Source\PSoC4/ADC_SAP.c ****     #endif /* End ADC_SAP_DEFAULT_SAMPLE_MODE == ADC_SAP__FREERUNNING */
 398:.\Generated_Source\PSoC4/ADC_SAP.c **** 
ARM GAS  C:\Users\zpstrwy\AppData\Local\Temp\cc1GCVkd.s 			page 16


 399:.\Generated_Source\PSoC4/ADC_SAP.c **** }
 451              		.loc 1 399 0
 452 000a BD46     		mov	sp, r7
 453              		@ sp needed
 454 000c 80BD     		pop	{r7, pc}
 455              	.L28:
 456 000e C046     		.align	2
 457              	.L27:
 458 0010 24003A40 		.word	1077542948
 459              		.cfi_endproc
 460              	.LFE6:
 461              		.size	ADC_SAP_StartConvert, .-ADC_SAP_StartConvert
 462              		.section	.text.ADC_SAP_StopConvert,"ax",%progbits
 463              		.align	2
 464              		.global	ADC_SAP_StopConvert
 465              		.code	16
 466              		.thumb_func
 467              		.type	ADC_SAP_StopConvert, %function
 468              	ADC_SAP_StopConvert:
 469              	.LFB7:
 400:.\Generated_Source\PSoC4/ADC_SAP.c **** 
 401:.\Generated_Source\PSoC4/ADC_SAP.c **** 
 402:.\Generated_Source\PSoC4/ADC_SAP.c **** /*******************************************************************************
 403:.\Generated_Source\PSoC4/ADC_SAP.c **** * Function Name: ADC_SAP_StopConvert
 404:.\Generated_Source\PSoC4/ADC_SAP.c **** ********************************************************************************
 405:.\Generated_Source\PSoC4/ADC_SAP.c **** *
 406:.\Generated_Source\PSoC4/ADC_SAP.c **** * Summary:
 407:.\Generated_Source\PSoC4/ADC_SAP.c **** *  Forces the ADC to stop all conversions.
 408:.\Generated_Source\PSoC4/ADC_SAP.c **** *
 409:.\Generated_Source\PSoC4/ADC_SAP.c **** * Parameters:
 410:.\Generated_Source\PSoC4/ADC_SAP.c **** *  None.
 411:.\Generated_Source\PSoC4/ADC_SAP.c **** *
 412:.\Generated_Source\PSoC4/ADC_SAP.c **** * Return:
 413:.\Generated_Source\PSoC4/ADC_SAP.c **** *  None.
 414:.\Generated_Source\PSoC4/ADC_SAP.c **** *
 415:.\Generated_Source\PSoC4/ADC_SAP.c **** *******************************************************************************/
 416:.\Generated_Source\PSoC4/ADC_SAP.c **** void ADC_SAP_StopConvert(void)
 417:.\Generated_Source\PSoC4/ADC_SAP.c **** {
 470              		.loc 1 417 0
 471              		.cfi_startproc
 472 0000 80B5     		push	{r7, lr}
 473              		.cfi_def_cfa_offset 8
 474              		.cfi_offset 7, -8
 475              		.cfi_offset 14, -4
 476 0002 00AF     		add	r7, sp, #0
 477              		.cfi_def_cfa_register 7
 418:.\Generated_Source\PSoC4/ADC_SAP.c ****     #if(ADC_SAP_DEFAULT_SAMPLE_MODE_SEL == ADC_SAP__FREERUNNING)
 419:.\Generated_Source\PSoC4/ADC_SAP.c ****         ADC_SAP_SAR_SAMPLE_CTRL_REG &= (uint32)(~ADC_SAP_CONTINUOUS_EN);
 420:.\Generated_Source\PSoC4/ADC_SAP.c ****     #endif /* ADC_SAP_DEFAULT_SAMPLE_MODE == ADC_SAP__FREERUNNING */
 421:.\Generated_Source\PSoC4/ADC_SAP.c **** }
 478              		.loc 1 421 0
 479 0004 BD46     		mov	sp, r7
 480              		@ sp needed
 481 0006 80BD     		pop	{r7, pc}
 482              		.cfi_endproc
 483              	.LFE7:
 484              		.size	ADC_SAP_StopConvert, .-ADC_SAP_StopConvert
ARM GAS  C:\Users\zpstrwy\AppData\Local\Temp\cc1GCVkd.s 			page 17


 485              		.section	.text.ADC_SAP_IsEndConversion,"ax",%progbits
 486              		.align	2
 487              		.global	ADC_SAP_IsEndConversion
 488              		.code	16
 489              		.thumb_func
 490              		.type	ADC_SAP_IsEndConversion, %function
 491              	ADC_SAP_IsEndConversion:
 492              	.LFB8:
 422:.\Generated_Source\PSoC4/ADC_SAP.c **** 
 423:.\Generated_Source\PSoC4/ADC_SAP.c **** 
 424:.\Generated_Source\PSoC4/ADC_SAP.c **** /*******************************************************************************
 425:.\Generated_Source\PSoC4/ADC_SAP.c **** * Function Name: ADC_SAP_IsEndConversion
 426:.\Generated_Source\PSoC4/ADC_SAP.c **** ********************************************************************************
 427:.\Generated_Source\PSoC4/ADC_SAP.c **** *
 428:.\Generated_Source\PSoC4/ADC_SAP.c **** * Summary:
 429:.\Generated_Source\PSoC4/ADC_SAP.c **** *  Description: Checks for ADC end of conversion for the case one
 430:.\Generated_Source\PSoC4/ADC_SAP.c **** *  channel and end of scan for the case of multiple channels. It acts
 431:.\Generated_Source\PSoC4/ADC_SAP.c **** *  as a software version of the EOC. This function provides the
 432:.\Generated_Source\PSoC4/ADC_SAP.c **** *  programmer with two options. In one mode this function
 433:.\Generated_Source\PSoC4/ADC_SAP.c **** *  immediately returns with the conversion status. In the other mode,
 434:.\Generated_Source\PSoC4/ADC_SAP.c **** *  the function does not return (blocking) until the conversion has
 435:.\Generated_Source\PSoC4/ADC_SAP.c **** *  completed.
 436:.\Generated_Source\PSoC4/ADC_SAP.c **** *
 437:.\Generated_Source\PSoC4/ADC_SAP.c **** * Parameters:
 438:.\Generated_Source\PSoC4/ADC_SAP.c **** *  ADC_RETURN_STATUS        -> Immediately returns conversion result status
 439:.\Generated_Source\PSoC4/ADC_SAP.c **** *  ADC_WAIT_FOR_RESULT      -> Does not return until ADC complete
 440:.\Generated_Source\PSoC4/ADC_SAP.c **** *  ADC_RETURN_STATUS_INJ    -> Immediately returns conversion result status
 441:.\Generated_Source\PSoC4/ADC_SAP.c **** *                              for injection channel
 442:.\Generated_Source\PSoC4/ADC_SAP.c **** *  ADC_WAIT_FOR_RESULT_INJ  -> Does not return until ADC completes injection
 443:.\Generated_Source\PSoC4/ADC_SAP.c **** *                              channel conversion
 444:.\Generated_Source\PSoC4/ADC_SAP.c **** *
 445:.\Generated_Source\PSoC4/ADC_SAP.c **** * Return:
 446:.\Generated_Source\PSoC4/ADC_SAP.c **** *  If a non-zero value is returned, the last conversion or scan has completed.
 447:.\Generated_Source\PSoC4/ADC_SAP.c **** *  If the returned value is zero, the ADC is still in the process of a scan.
 448:.\Generated_Source\PSoC4/ADC_SAP.c **** *
 449:.\Generated_Source\PSoC4/ADC_SAP.c **** *******************************************************************************/
 450:.\Generated_Source\PSoC4/ADC_SAP.c **** uint32 ADC_SAP_IsEndConversion(uint32 retMode)
 451:.\Generated_Source\PSoC4/ADC_SAP.c **** {
 493              		.loc 1 451 0
 494              		.cfi_startproc
 495 0000 80B5     		push	{r7, lr}
 496              		.cfi_def_cfa_offset 8
 497              		.cfi_offset 7, -8
 498              		.cfi_offset 14, -4
 499 0002 84B0     		sub	sp, sp, #16
 500              		.cfi_def_cfa_offset 24
 501 0004 00AF     		add	r7, sp, #0
 502              		.cfi_def_cfa_register 7
 503 0006 7860     		str	r0, [r7, #4]
 452:.\Generated_Source\PSoC4/ADC_SAP.c ****     uint32 status = 0u;
 504              		.loc 1 452 0
 505 0008 0023     		mov	r3, #0
 506 000a FB60     		str	r3, [r7, #12]
 453:.\Generated_Source\PSoC4/ADC_SAP.c **** 
 454:.\Generated_Source\PSoC4/ADC_SAP.c ****     if((retMode & (ADC_SAP_RETURN_STATUS | ADC_SAP_WAIT_FOR_RESULT)) != 0u)
 507              		.loc 1 454 0
 508 000c 7B68     		ldr	r3, [r7, #4]
ARM GAS  C:\Users\zpstrwy\AppData\Local\Temp\cc1GCVkd.s 			page 18


 509 000e 0322     		mov	r2, #3
 510 0010 1340     		and	r3, r2
 511 0012 11D0     		beq	.L31
 512              	.L33:
 455:.\Generated_Source\PSoC4/ADC_SAP.c ****     {
 456:.\Generated_Source\PSoC4/ADC_SAP.c ****         do
 457:.\Generated_Source\PSoC4/ADC_SAP.c ****         {
 458:.\Generated_Source\PSoC4/ADC_SAP.c ****             status = ADC_SAP_SAR_INTR_REG & ADC_SAP_EOS_MASK;
 513              		.loc 1 458 0 discriminator 2
 514 0014 0B4B     		ldr	r3, .L35
 515 0016 1B68     		ldr	r3, [r3]
 516 0018 0122     		mov	r2, #1
 517 001a 1340     		and	r3, r2
 518 001c FB60     		str	r3, [r7, #12]
 459:.\Generated_Source\PSoC4/ADC_SAP.c ****         }while((status == 0u) && ((retMode & ADC_SAP_WAIT_FOR_RESULT) != 0u));
 519              		.loc 1 459 0 discriminator 2
 520 001e FB68     		ldr	r3, [r7, #12]
 521 0020 002B     		cmp	r3, #0
 522 0022 03D1     		bne	.L32
 523              		.loc 1 459 0 is_stmt 0 discriminator 1
 524 0024 7B68     		ldr	r3, [r7, #4]
 525 0026 0222     		mov	r2, #2
 526 0028 1340     		and	r3, r2
 527 002a F3D1     		bne	.L33
 528              	.L32:
 460:.\Generated_Source\PSoC4/ADC_SAP.c **** 
 461:.\Generated_Source\PSoC4/ADC_SAP.c ****         if(status != 0u)
 529              		.loc 1 461 0 is_stmt 1
 530 002c FB68     		ldr	r3, [r7, #12]
 531 002e 002B     		cmp	r3, #0
 532 0030 02D0     		beq	.L31
 462:.\Generated_Source\PSoC4/ADC_SAP.c ****         {
 463:.\Generated_Source\PSoC4/ADC_SAP.c ****             /* Clear EOS bit */
 464:.\Generated_Source\PSoC4/ADC_SAP.c ****             ADC_SAP_SAR_INTR_REG = ADC_SAP_EOS_MASK;
 533              		.loc 1 464 0
 534 0032 044B     		ldr	r3, .L35
 535 0034 0122     		mov	r2, #1
 536 0036 1A60     		str	r2, [r3]
 537              	.L31:
 465:.\Generated_Source\PSoC4/ADC_SAP.c ****         }
 466:.\Generated_Source\PSoC4/ADC_SAP.c ****     }
 467:.\Generated_Source\PSoC4/ADC_SAP.c **** 
 468:.\Generated_Source\PSoC4/ADC_SAP.c ****     #if(ADC_SAP_INJ_CHANNEL_ENABLED)
 469:.\Generated_Source\PSoC4/ADC_SAP.c ****         if((retMode & (ADC_SAP_RETURN_STATUS_INJ | ADC_SAP_WAIT_FOR_RESULT_INJ)) != 0u)
 470:.\Generated_Source\PSoC4/ADC_SAP.c ****         {
 471:.\Generated_Source\PSoC4/ADC_SAP.c ****             do
 472:.\Generated_Source\PSoC4/ADC_SAP.c ****             {
 473:.\Generated_Source\PSoC4/ADC_SAP.c ****                 status |= ADC_SAP_SAR_INTR_REG & ADC_SAP_INJ_EOC_MASK;
 474:.\Generated_Source\PSoC4/ADC_SAP.c ****             }while(((status & ADC_SAP_INJ_EOC_MASK) == 0u) &&
 475:.\Generated_Source\PSoC4/ADC_SAP.c ****                    ((retMode & ADC_SAP_WAIT_FOR_RESULT_INJ) != 0u));
 476:.\Generated_Source\PSoC4/ADC_SAP.c **** 
 477:.\Generated_Source\PSoC4/ADC_SAP.c ****             if((status & ADC_SAP_INJ_EOC_MASK) != 0u)
 478:.\Generated_Source\PSoC4/ADC_SAP.c ****             {
 479:.\Generated_Source\PSoC4/ADC_SAP.c ****                 /* Clear Injection EOS bit */
 480:.\Generated_Source\PSoC4/ADC_SAP.c ****                 ADC_SAP_SAR_INTR_REG = ADC_SAP_INJ_EOC_MASK;
 481:.\Generated_Source\PSoC4/ADC_SAP.c ****             }
 482:.\Generated_Source\PSoC4/ADC_SAP.c ****         }
ARM GAS  C:\Users\zpstrwy\AppData\Local\Temp\cc1GCVkd.s 			page 19


 483:.\Generated_Source\PSoC4/ADC_SAP.c ****     #endif /* ADC_SAP_INJ_CHANNEL_ENABLED */
 484:.\Generated_Source\PSoC4/ADC_SAP.c **** 
 485:.\Generated_Source\PSoC4/ADC_SAP.c ****     return (status);
 538              		.loc 1 485 0
 539 0038 FB68     		ldr	r3, [r7, #12]
 486:.\Generated_Source\PSoC4/ADC_SAP.c **** }
 540              		.loc 1 486 0
 541 003a 181C     		mov	r0, r3
 542 003c BD46     		mov	sp, r7
 543 003e 04B0     		add	sp, sp, #16
 544              		@ sp needed
 545 0040 80BD     		pop	{r7, pc}
 546              	.L36:
 547 0042 C046     		.align	2
 548              	.L35:
 549 0044 10023A40 		.word	1077543440
 550              		.cfi_endproc
 551              	.LFE8:
 552              		.size	ADC_SAP_IsEndConversion, .-ADC_SAP_IsEndConversion
 553              		.section	.text.ADC_SAP_GetResult16,"ax",%progbits
 554              		.align	2
 555              		.global	ADC_SAP_GetResult16
 556              		.code	16
 557              		.thumb_func
 558              		.type	ADC_SAP_GetResult16, %function
 559              	ADC_SAP_GetResult16:
 560              	.LFB9:
 487:.\Generated_Source\PSoC4/ADC_SAP.c **** 
 488:.\Generated_Source\PSoC4/ADC_SAP.c **** 
 489:.\Generated_Source\PSoC4/ADC_SAP.c **** /*******************************************************************************
 490:.\Generated_Source\PSoC4/ADC_SAP.c **** * Function Name: ADC_SAP_GetResult16
 491:.\Generated_Source\PSoC4/ADC_SAP.c **** ********************************************************************************
 492:.\Generated_Source\PSoC4/ADC_SAP.c **** *
 493:.\Generated_Source\PSoC4/ADC_SAP.c **** * Summary:
 494:.\Generated_Source\PSoC4/ADC_SAP.c **** *  Gets the data available in the SAR DATA register.
 495:.\Generated_Source\PSoC4/ADC_SAP.c **** *
 496:.\Generated_Source\PSoC4/ADC_SAP.c **** * Parameters:
 497:.\Generated_Source\PSoC4/ADC_SAP.c **** *  chan: The ADC channel in which to return the result. The first channel
 498:.\Generated_Source\PSoC4/ADC_SAP.c **** *  is 0 and the injection channel if enabled is the number of valid channels.
 499:.\Generated_Source\PSoC4/ADC_SAP.c **** *
 500:.\Generated_Source\PSoC4/ADC_SAP.c **** * Return:
 501:.\Generated_Source\PSoC4/ADC_SAP.c **** *  Returns converted data as a signed 16-bit integer
 502:.\Generated_Source\PSoC4/ADC_SAP.c **** *
 503:.\Generated_Source\PSoC4/ADC_SAP.c **** *******************************************************************************/
 504:.\Generated_Source\PSoC4/ADC_SAP.c **** int16 ADC_SAP_GetResult16(uint32 chan)
 505:.\Generated_Source\PSoC4/ADC_SAP.c **** {
 561              		.loc 1 505 0
 562              		.cfi_startproc
 563 0000 80B5     		push	{r7, lr}
 564              		.cfi_def_cfa_offset 8
 565              		.cfi_offset 7, -8
 566              		.cfi_offset 14, -4
 567 0002 84B0     		sub	sp, sp, #16
 568              		.cfi_def_cfa_offset 24
 569 0004 00AF     		add	r7, sp, #0
 570              		.cfi_def_cfa_register 7
 571 0006 7860     		str	r0, [r7, #4]
ARM GAS  C:\Users\zpstrwy\AppData\Local\Temp\cc1GCVkd.s 			page 20


 506:.\Generated_Source\PSoC4/ADC_SAP.c ****     uint32 result;
 507:.\Generated_Source\PSoC4/ADC_SAP.c **** 
 508:.\Generated_Source\PSoC4/ADC_SAP.c ****     /* Halt CPU in debug mode if channel is out of valid range */
 509:.\Generated_Source\PSoC4/ADC_SAP.c ****     CYASSERT(chan < ADC_SAP_TOTAL_CHANNELS_NUM);
 572              		.loc 1 509 0
 573 0008 7B68     		ldr	r3, [r7, #4]
 574 000a 002B     		cmp	r3, #0
 575 000c 02D0     		beq	.L38
 576              		.loc 1 509 0 is_stmt 0 discriminator 1
 577 000e 0020     		mov	r0, #0
 578 0010 FFF7FEFF 		bl	CyHalt
 579              	.L38:
 510:.\Generated_Source\PSoC4/ADC_SAP.c **** 
 511:.\Generated_Source\PSoC4/ADC_SAP.c ****     if(chan < ADC_SAP_SEQUENCED_CHANNELS_NUM)
 580              		.loc 1 511 0 is_stmt 1
 581 0014 7B68     		ldr	r3, [r7, #4]
 582 0016 002B     		cmp	r3, #0
 583 0018 09D1     		bne	.L39
 512:.\Generated_Source\PSoC4/ADC_SAP.c ****     {
 513:.\Generated_Source\PSoC4/ADC_SAP.c ****         result = CY_GET_REG32((reg32 *)(ADC_SAP_SAR_CHAN_RESULT_IND + (uint32)(chan << 2u))) &
 584              		.loc 1 513 0
 585 001a 7B68     		ldr	r3, [r7, #4]
 586 001c 9B00     		lsl	r3, r3, #2
 587 001e 084A     		ldr	r2, .L42
 588 0020 9446     		mov	ip, r2
 589 0022 6344     		add	r3, r3, ip
 590 0024 1B68     		ldr	r3, [r3]
 591 0026 1B04     		lsl	r3, r3, #16
 592 0028 1B0C     		lsr	r3, r3, #16
 593 002a FB60     		str	r3, [r7, #12]
 594 002c 01E0     		b	.L40
 595              	.L39:
 514:.\Generated_Source\PSoC4/ADC_SAP.c ****                 ADC_SAP_RESULT_MASK;
 515:.\Generated_Source\PSoC4/ADC_SAP.c ****     }
 516:.\Generated_Source\PSoC4/ADC_SAP.c ****     else
 517:.\Generated_Source\PSoC4/ADC_SAP.c ****     {
 518:.\Generated_Source\PSoC4/ADC_SAP.c ****         #if(ADC_SAP_INJ_CHANNEL_ENABLED)
 519:.\Generated_Source\PSoC4/ADC_SAP.c ****             result = ADC_SAP_SAR_INJ_RESULT_REG & ADC_SAP_RESULT_MASK;
 520:.\Generated_Source\PSoC4/ADC_SAP.c ****         #else
 521:.\Generated_Source\PSoC4/ADC_SAP.c ****             result = 0u;
 596              		.loc 1 521 0
 597 002e 0023     		mov	r3, #0
 598 0030 FB60     		str	r3, [r7, #12]
 599              	.L40:
 522:.\Generated_Source\PSoC4/ADC_SAP.c ****         #endif /* ADC_SAP_INJ_CHANNEL_ENABLED */
 523:.\Generated_Source\PSoC4/ADC_SAP.c ****     }
 524:.\Generated_Source\PSoC4/ADC_SAP.c **** 
 525:.\Generated_Source\PSoC4/ADC_SAP.c ****     return ( (int16)result );
 600              		.loc 1 525 0
 601 0032 FB68     		ldr	r3, [r7, #12]
 602 0034 9BB2     		uxth	r3, r3
 603 0036 1BB2     		sxth	r3, r3
 526:.\Generated_Source\PSoC4/ADC_SAP.c **** }
 604              		.loc 1 526 0
 605 0038 181C     		mov	r0, r3
 606 003a BD46     		mov	sp, r7
 607 003c 04B0     		add	sp, sp, #16
ARM GAS  C:\Users\zpstrwy\AppData\Local\Temp\cc1GCVkd.s 			page 21


 608              		@ sp needed
 609 003e 80BD     		pop	{r7, pc}
 610              	.L43:
 611              		.align	2
 612              	.L42:
 613 0040 80013A40 		.word	1077543296
 614              		.cfi_endproc
 615              	.LFE9:
 616              		.size	ADC_SAP_GetResult16, .-ADC_SAP_GetResult16
 617              		.section	.text.ADC_SAP_SetChanMask,"ax",%progbits
 618              		.align	2
 619              		.global	ADC_SAP_SetChanMask
 620              		.code	16
 621              		.thumb_func
 622              		.type	ADC_SAP_SetChanMask, %function
 623              	ADC_SAP_SetChanMask:
 624              	.LFB10:
 527:.\Generated_Source\PSoC4/ADC_SAP.c **** 
 528:.\Generated_Source\PSoC4/ADC_SAP.c **** 
 529:.\Generated_Source\PSoC4/ADC_SAP.c **** /*******************************************************************************
 530:.\Generated_Source\PSoC4/ADC_SAP.c **** * Function Name: ADC_SAP_SetChanMask
 531:.\Generated_Source\PSoC4/ADC_SAP.c **** ********************************************************************************
 532:.\Generated_Source\PSoC4/ADC_SAP.c **** *
 533:.\Generated_Source\PSoC4/ADC_SAP.c **** * Summary:
 534:.\Generated_Source\PSoC4/ADC_SAP.c **** *  Sets the channel enable mask.
 535:.\Generated_Source\PSoC4/ADC_SAP.c **** *
 536:.\Generated_Source\PSoC4/ADC_SAP.c **** * Parameters:
 537:.\Generated_Source\PSoC4/ADC_SAP.c **** *  mask: Sets which channels that will be
 538:.\Generated_Source\PSoC4/ADC_SAP.c **** *  scanned. Setting bits for channels that do not exist will have no
 539:.\Generated_Source\PSoC4/ADC_SAP.c **** *  effect. For example, if only 6 channels were enabled, setting a
 540:.\Generated_Source\PSoC4/ADC_SAP.c **** *  mask of 0x0103 would only enable the last two channels (0 and 1).
 541:.\Generated_Source\PSoC4/ADC_SAP.c **** *  This API will not enable the injection channel.
 542:.\Generated_Source\PSoC4/ADC_SAP.c **** *  Examples: If the component is setup to sequence through 8
 543:.\Generated_Source\PSoC4/ADC_SAP.c **** *  channels, a mask of 0x000F would enable channels 0, 1, 2, and 3.
 544:.\Generated_Source\PSoC4/ADC_SAP.c **** *
 545:.\Generated_Source\PSoC4/ADC_SAP.c **** * Return:
 546:.\Generated_Source\PSoC4/ADC_SAP.c **** *  None.
 547:.\Generated_Source\PSoC4/ADC_SAP.c **** *
 548:.\Generated_Source\PSoC4/ADC_SAP.c **** *******************************************************************************/
 549:.\Generated_Source\PSoC4/ADC_SAP.c **** void ADC_SAP_SetChanMask(uint32 mask)
 550:.\Generated_Source\PSoC4/ADC_SAP.c **** {
 625              		.loc 1 550 0
 626              		.cfi_startproc
 627 0000 80B5     		push	{r7, lr}
 628              		.cfi_def_cfa_offset 8
 629              		.cfi_offset 7, -8
 630              		.cfi_offset 14, -4
 631 0002 82B0     		sub	sp, sp, #8
 632              		.cfi_def_cfa_offset 16
 633 0004 00AF     		add	r7, sp, #0
 634              		.cfi_def_cfa_register 7
 635 0006 7860     		str	r0, [r7, #4]
 551:.\Generated_Source\PSoC4/ADC_SAP.c ****     ADC_SAP_SAR_CHAN_EN_REG = mask & ADC_SAP_MAX_CHANNELS_EN_MASK;
 636              		.loc 1 551 0
 637 0008 034B     		ldr	r3, .L45
 638 000a 7A68     		ldr	r2, [r7, #4]
 639 000c 0121     		mov	r1, #1
ARM GAS  C:\Users\zpstrwy\AppData\Local\Temp\cc1GCVkd.s 			page 22


 640 000e 0A40     		and	r2, r1
 641 0010 1A60     		str	r2, [r3]
 552:.\Generated_Source\PSoC4/ADC_SAP.c **** }
 642              		.loc 1 552 0
 643 0012 BD46     		mov	sp, r7
 644 0014 02B0     		add	sp, sp, #8
 645              		@ sp needed
 646 0016 80BD     		pop	{r7, pc}
 647              	.L46:
 648              		.align	2
 649              	.L45:
 650 0018 20003A40 		.word	1077542944
 651              		.cfi_endproc
 652              	.LFE10:
 653              		.size	ADC_SAP_SetChanMask, .-ADC_SAP_SetChanMask
 654              		.section	.text.ADC_SAP_SetLowLimit,"ax",%progbits
 655              		.align	2
 656              		.global	ADC_SAP_SetLowLimit
 657              		.code	16
 658              		.thumb_func
 659              		.type	ADC_SAP_SetLowLimit, %function
 660              	ADC_SAP_SetLowLimit:
 661              	.LFB11:
 553:.\Generated_Source\PSoC4/ADC_SAP.c **** 
 554:.\Generated_Source\PSoC4/ADC_SAP.c **** #if(ADC_SAP_INJ_CHANNEL_ENABLED)
 555:.\Generated_Source\PSoC4/ADC_SAP.c **** 
 556:.\Generated_Source\PSoC4/ADC_SAP.c **** 
 557:.\Generated_Source\PSoC4/ADC_SAP.c ****     /*******************************************************************************
 558:.\Generated_Source\PSoC4/ADC_SAP.c ****     * Function Name: ADC_SAP_EnableInjection
 559:.\Generated_Source\PSoC4/ADC_SAP.c ****     ********************************************************************************
 560:.\Generated_Source\PSoC4/ADC_SAP.c ****     *
 561:.\Generated_Source\PSoC4/ADC_SAP.c ****     * Summary:
 562:.\Generated_Source\PSoC4/ADC_SAP.c ****     *  Enables the injection channel for the next scan only.
 563:.\Generated_Source\PSoC4/ADC_SAP.c ****     *
 564:.\Generated_Source\PSoC4/ADC_SAP.c ****     * Parameters:
 565:.\Generated_Source\PSoC4/ADC_SAP.c ****     *  None.
 566:.\Generated_Source\PSoC4/ADC_SAP.c ****     *
 567:.\Generated_Source\PSoC4/ADC_SAP.c ****     * Return:
 568:.\Generated_Source\PSoC4/ADC_SAP.c ****     *  None.
 569:.\Generated_Source\PSoC4/ADC_SAP.c ****     *
 570:.\Generated_Source\PSoC4/ADC_SAP.c ****     *******************************************************************************/
 571:.\Generated_Source\PSoC4/ADC_SAP.c ****     void ADC_SAP_EnableInjection(void)
 572:.\Generated_Source\PSoC4/ADC_SAP.c ****     {
 573:.\Generated_Source\PSoC4/ADC_SAP.c ****         ADC_SAP_SAR_INJ_CHAN_CONFIG_REG |= ADC_SAP_INJ_CHAN_EN;
 574:.\Generated_Source\PSoC4/ADC_SAP.c ****     }
 575:.\Generated_Source\PSoC4/ADC_SAP.c **** 
 576:.\Generated_Source\PSoC4/ADC_SAP.c **** #endif /* ADC_SAP_INJ_CHANNEL_ENABLED */
 577:.\Generated_Source\PSoC4/ADC_SAP.c **** 
 578:.\Generated_Source\PSoC4/ADC_SAP.c **** 
 579:.\Generated_Source\PSoC4/ADC_SAP.c **** /*******************************************************************************
 580:.\Generated_Source\PSoC4/ADC_SAP.c **** * Function Name: ADC_SAP_SetLowLimit
 581:.\Generated_Source\PSoC4/ADC_SAP.c **** ********************************************************************************
 582:.\Generated_Source\PSoC4/ADC_SAP.c **** *
 583:.\Generated_Source\PSoC4/ADC_SAP.c **** * Summary:
 584:.\Generated_Source\PSoC4/ADC_SAP.c **** *  Sets the low limit parameter for a limit condition.
 585:.\Generated_Source\PSoC4/ADC_SAP.c **** *
 586:.\Generated_Source\PSoC4/ADC_SAP.c **** * Parameters:
ARM GAS  C:\Users\zpstrwy\AppData\Local\Temp\cc1GCVkd.s 			page 23


 587:.\Generated_Source\PSoC4/ADC_SAP.c **** *  lowLimit: The low limit for a limit condition.
 588:.\Generated_Source\PSoC4/ADC_SAP.c **** *
 589:.\Generated_Source\PSoC4/ADC_SAP.c **** * Return:
 590:.\Generated_Source\PSoC4/ADC_SAP.c **** *  None.
 591:.\Generated_Source\PSoC4/ADC_SAP.c **** *
 592:.\Generated_Source\PSoC4/ADC_SAP.c **** *******************************************************************************/
 593:.\Generated_Source\PSoC4/ADC_SAP.c **** void ADC_SAP_SetLowLimit(uint32 lowLimit)
 594:.\Generated_Source\PSoC4/ADC_SAP.c **** {
 662              		.loc 1 594 0
 663              		.cfi_startproc
 664 0000 80B5     		push	{r7, lr}
 665              		.cfi_def_cfa_offset 8
 666              		.cfi_offset 7, -8
 667              		.cfi_offset 14, -4
 668 0002 82B0     		sub	sp, sp, #8
 669              		.cfi_def_cfa_offset 16
 670 0004 00AF     		add	r7, sp, #0
 671              		.cfi_def_cfa_register 7
 672 0006 7860     		str	r0, [r7, #4]
 595:.\Generated_Source\PSoC4/ADC_SAP.c ****     ADC_SAP_SAR_RANGE_THRES_REG &= (uint32)(~ADC_SAP_RANGE_LOW_MASK);
 673              		.loc 1 595 0
 674 0008 084B     		ldr	r3, .L48
 675 000a 084A     		ldr	r2, .L48
 676 000c 1268     		ldr	r2, [r2]
 677 000e 120C     		lsr	r2, r2, #16
 678 0010 1204     		lsl	r2, r2, #16
 679 0012 1A60     		str	r2, [r3]
 596:.\Generated_Source\PSoC4/ADC_SAP.c ****     ADC_SAP_SAR_RANGE_THRES_REG |= lowLimit & ADC_SAP_RANGE_LOW_MASK;
 680              		.loc 1 596 0
 681 0014 054B     		ldr	r3, .L48
 682 0016 054A     		ldr	r2, .L48
 683 0018 1168     		ldr	r1, [r2]
 684 001a 7A68     		ldr	r2, [r7, #4]
 685 001c 1204     		lsl	r2, r2, #16
 686 001e 120C     		lsr	r2, r2, #16
 687 0020 0A43     		orr	r2, r1
 688 0022 1A60     		str	r2, [r3]
 597:.\Generated_Source\PSoC4/ADC_SAP.c **** }
 689              		.loc 1 597 0
 690 0024 BD46     		mov	sp, r7
 691 0026 02B0     		add	sp, sp, #8
 692              		@ sp needed
 693 0028 80BD     		pop	{r7, pc}
 694              	.L49:
 695 002a C046     		.align	2
 696              	.L48:
 697 002c 18003A40 		.word	1077542936
 698              		.cfi_endproc
 699              	.LFE11:
 700              		.size	ADC_SAP_SetLowLimit, .-ADC_SAP_SetLowLimit
 701              		.section	.text.ADC_SAP_SetHighLimit,"ax",%progbits
 702              		.align	2
 703              		.global	ADC_SAP_SetHighLimit
 704              		.code	16
 705              		.thumb_func
 706              		.type	ADC_SAP_SetHighLimit, %function
 707              	ADC_SAP_SetHighLimit:
ARM GAS  C:\Users\zpstrwy\AppData\Local\Temp\cc1GCVkd.s 			page 24


 708              	.LFB12:
 598:.\Generated_Source\PSoC4/ADC_SAP.c **** 
 599:.\Generated_Source\PSoC4/ADC_SAP.c **** 
 600:.\Generated_Source\PSoC4/ADC_SAP.c **** /*******************************************************************************
 601:.\Generated_Source\PSoC4/ADC_SAP.c **** * Function Name: ADC_SAP_SetHighLimit
 602:.\Generated_Source\PSoC4/ADC_SAP.c **** ********************************************************************************
 603:.\Generated_Source\PSoC4/ADC_SAP.c **** *
 604:.\Generated_Source\PSoC4/ADC_SAP.c **** * Summary:
 605:.\Generated_Source\PSoC4/ADC_SAP.c **** *  Sets the low limit parameter for a limit condition.
 606:.\Generated_Source\PSoC4/ADC_SAP.c **** *
 607:.\Generated_Source\PSoC4/ADC_SAP.c **** * Parameters:
 608:.\Generated_Source\PSoC4/ADC_SAP.c **** *  highLimit: The high limit for a limit condition.
 609:.\Generated_Source\PSoC4/ADC_SAP.c **** *
 610:.\Generated_Source\PSoC4/ADC_SAP.c **** * Return:
 611:.\Generated_Source\PSoC4/ADC_SAP.c **** *  None.
 612:.\Generated_Source\PSoC4/ADC_SAP.c **** *
 613:.\Generated_Source\PSoC4/ADC_SAP.c **** *******************************************************************************/
 614:.\Generated_Source\PSoC4/ADC_SAP.c **** void ADC_SAP_SetHighLimit(uint32 highLimit)
 615:.\Generated_Source\PSoC4/ADC_SAP.c **** {
 709              		.loc 1 615 0
 710              		.cfi_startproc
 711 0000 80B5     		push	{r7, lr}
 712              		.cfi_def_cfa_offset 8
 713              		.cfi_offset 7, -8
 714              		.cfi_offset 14, -4
 715 0002 82B0     		sub	sp, sp, #8
 716              		.cfi_def_cfa_offset 16
 717 0004 00AF     		add	r7, sp, #0
 718              		.cfi_def_cfa_register 7
 719 0006 7860     		str	r0, [r7, #4]
 616:.\Generated_Source\PSoC4/ADC_SAP.c ****     ADC_SAP_SAR_RANGE_THRES_REG &= (uint32)(~ADC_SAP_RANGE_HIGH_MASK);
 720              		.loc 1 616 0
 721 0008 074B     		ldr	r3, .L51
 722 000a 074A     		ldr	r2, .L51
 723 000c 1268     		ldr	r2, [r2]
 724 000e 1204     		lsl	r2, r2, #16
 725 0010 120C     		lsr	r2, r2, #16
 726 0012 1A60     		str	r2, [r3]
 617:.\Generated_Source\PSoC4/ADC_SAP.c ****     ADC_SAP_SAR_RANGE_THRES_REG |= (uint32)(highLimit << ADC_SAP_RANGE_HIGH_OFFSET);
 727              		.loc 1 617 0
 728 0014 044B     		ldr	r3, .L51
 729 0016 044A     		ldr	r2, .L51
 730 0018 1168     		ldr	r1, [r2]
 731 001a 7A68     		ldr	r2, [r7, #4]
 732 001c 1204     		lsl	r2, r2, #16
 733 001e 0A43     		orr	r2, r1
 734 0020 1A60     		str	r2, [r3]
 618:.\Generated_Source\PSoC4/ADC_SAP.c **** }
 735              		.loc 1 618 0
 736 0022 BD46     		mov	sp, r7
 737 0024 02B0     		add	sp, sp, #8
 738              		@ sp needed
 739 0026 80BD     		pop	{r7, pc}
 740              	.L52:
 741              		.align	2
 742              	.L51:
 743 0028 18003A40 		.word	1077542936
ARM GAS  C:\Users\zpstrwy\AppData\Local\Temp\cc1GCVkd.s 			page 25


 744              		.cfi_endproc
 745              	.LFE12:
 746              		.size	ADC_SAP_SetHighLimit, .-ADC_SAP_SetHighLimit
 747              		.section	.text.ADC_SAP_SetLimitMask,"ax",%progbits
 748              		.align	2
 749              		.global	ADC_SAP_SetLimitMask
 750              		.code	16
 751              		.thumb_func
 752              		.type	ADC_SAP_SetLimitMask, %function
 753              	ADC_SAP_SetLimitMask:
 754              	.LFB13:
 619:.\Generated_Source\PSoC4/ADC_SAP.c **** 
 620:.\Generated_Source\PSoC4/ADC_SAP.c **** 
 621:.\Generated_Source\PSoC4/ADC_SAP.c **** /*******************************************************************************
 622:.\Generated_Source\PSoC4/ADC_SAP.c **** * Function Name: ADC_SAP_SetLimitMask
 623:.\Generated_Source\PSoC4/ADC_SAP.c **** ********************************************************************************
 624:.\Generated_Source\PSoC4/ADC_SAP.c **** *
 625:.\Generated_Source\PSoC4/ADC_SAP.c **** * Summary:
 626:.\Generated_Source\PSoC4/ADC_SAP.c **** *  Sets the channel limit condition mask.
 627:.\Generated_Source\PSoC4/ADC_SAP.c **** *
 628:.\Generated_Source\PSoC4/ADC_SAP.c **** * Parameters:
 629:.\Generated_Source\PSoC4/ADC_SAP.c **** *  mask: Sets which channels that may cause a
 630:.\Generated_Source\PSoC4/ADC_SAP.c **** *  limit condition interrupt. Setting bits for channels that do not exist
 631:.\Generated_Source\PSoC4/ADC_SAP.c **** *  will have no effect. For example, if only 6 channels were enabled,
 632:.\Generated_Source\PSoC4/ADC_SAP.c **** *  setting a mask of 0x0103 would only enable the last two channels (0 and 1).
 633:.\Generated_Source\PSoC4/ADC_SAP.c **** *
 634:.\Generated_Source\PSoC4/ADC_SAP.c **** * Return:
 635:.\Generated_Source\PSoC4/ADC_SAP.c **** *  None.
 636:.\Generated_Source\PSoC4/ADC_SAP.c **** *
 637:.\Generated_Source\PSoC4/ADC_SAP.c **** *******************************************************************************/
 638:.\Generated_Source\PSoC4/ADC_SAP.c **** void ADC_SAP_SetLimitMask(uint32 mask)
 639:.\Generated_Source\PSoC4/ADC_SAP.c **** {
 755              		.loc 1 639 0
 756              		.cfi_startproc
 757 0000 80B5     		push	{r7, lr}
 758              		.cfi_def_cfa_offset 8
 759              		.cfi_offset 7, -8
 760              		.cfi_offset 14, -4
 761 0002 82B0     		sub	sp, sp, #8
 762              		.cfi_def_cfa_offset 16
 763 0004 00AF     		add	r7, sp, #0
 764              		.cfi_def_cfa_register 7
 765 0006 7860     		str	r0, [r7, #4]
 640:.\Generated_Source\PSoC4/ADC_SAP.c ****     ADC_SAP_SAR_RANGE_INTR_MASK_REG = mask & ADC_SAP_MAX_CHANNELS_EN_MASK;
 766              		.loc 1 640 0
 767 0008 034B     		ldr	r3, .L54
 768 000a 7A68     		ldr	r2, [r7, #4]
 769 000c 0121     		mov	r1, #1
 770 000e 0A40     		and	r2, r1
 771 0010 1A60     		str	r2, [r3]
 641:.\Generated_Source\PSoC4/ADC_SAP.c **** }
 772              		.loc 1 641 0
 773 0012 BD46     		mov	sp, r7
 774 0014 02B0     		add	sp, sp, #8
 775              		@ sp needed
 776 0016 80BD     		pop	{r7, pc}
 777              	.L55:
ARM GAS  C:\Users\zpstrwy\AppData\Local\Temp\cc1GCVkd.s 			page 26


 778              		.align	2
 779              	.L54:
 780 0018 38023A40 		.word	1077543480
 781              		.cfi_endproc
 782              	.LFE13:
 783              		.size	ADC_SAP_SetLimitMask, .-ADC_SAP_SetLimitMask
 784              		.section	.text.ADC_SAP_SetSatMask,"ax",%progbits
 785              		.align	2
 786              		.global	ADC_SAP_SetSatMask
 787              		.code	16
 788              		.thumb_func
 789              		.type	ADC_SAP_SetSatMask, %function
 790              	ADC_SAP_SetSatMask:
 791              	.LFB14:
 642:.\Generated_Source\PSoC4/ADC_SAP.c **** 
 643:.\Generated_Source\PSoC4/ADC_SAP.c **** 
 644:.\Generated_Source\PSoC4/ADC_SAP.c **** /*******************************************************************************
 645:.\Generated_Source\PSoC4/ADC_SAP.c **** * Function Name: ADC_SAP_SetSatMask
 646:.\Generated_Source\PSoC4/ADC_SAP.c **** ********************************************************************************
 647:.\Generated_Source\PSoC4/ADC_SAP.c **** *
 648:.\Generated_Source\PSoC4/ADC_SAP.c **** * Summary:
 649:.\Generated_Source\PSoC4/ADC_SAP.c **** *  Sets the channel saturation event mask.
 650:.\Generated_Source\PSoC4/ADC_SAP.c **** *
 651:.\Generated_Source\PSoC4/ADC_SAP.c **** * Parameters:
 652:.\Generated_Source\PSoC4/ADC_SAP.c **** *  mask: Sets which channels that may cause a
 653:.\Generated_Source\PSoC4/ADC_SAP.c **** *  saturation event interrupt. Setting bits for channels that do not exist
 654:.\Generated_Source\PSoC4/ADC_SAP.c **** *  will have no effect. For example, if only 8 channels were enabled,
 655:.\Generated_Source\PSoC4/ADC_SAP.c **** *  setting a mask of 0x01C0 would only enable two channels (6 and 7).
 656:.\Generated_Source\PSoC4/ADC_SAP.c **** *
 657:.\Generated_Source\PSoC4/ADC_SAP.c **** * Return:
 658:.\Generated_Source\PSoC4/ADC_SAP.c **** *  None.
 659:.\Generated_Source\PSoC4/ADC_SAP.c **** *
 660:.\Generated_Source\PSoC4/ADC_SAP.c **** *******************************************************************************/
 661:.\Generated_Source\PSoC4/ADC_SAP.c **** void ADC_SAP_SetSatMask(uint32 mask)
 662:.\Generated_Source\PSoC4/ADC_SAP.c **** {
 792              		.loc 1 662 0
 793              		.cfi_startproc
 794 0000 80B5     		push	{r7, lr}
 795              		.cfi_def_cfa_offset 8
 796              		.cfi_offset 7, -8
 797              		.cfi_offset 14, -4
 798 0002 82B0     		sub	sp, sp, #8
 799              		.cfi_def_cfa_offset 16
 800 0004 00AF     		add	r7, sp, #0
 801              		.cfi_def_cfa_register 7
 802 0006 7860     		str	r0, [r7, #4]
 663:.\Generated_Source\PSoC4/ADC_SAP.c ****     ADC_SAP_SAR_SATURATE_INTR_MASK_REG = mask & ADC_SAP_MAX_CHANNELS_EN_MASK;
 803              		.loc 1 663 0
 804 0008 034B     		ldr	r3, .L57
 805 000a 7A68     		ldr	r2, [r7, #4]
 806 000c 0121     		mov	r1, #1
 807 000e 0A40     		and	r2, r1
 808 0010 1A60     		str	r2, [r3]
 664:.\Generated_Source\PSoC4/ADC_SAP.c **** }
 809              		.loc 1 664 0
 810 0012 BD46     		mov	sp, r7
 811 0014 02B0     		add	sp, sp, #8
ARM GAS  C:\Users\zpstrwy\AppData\Local\Temp\cc1GCVkd.s 			page 27


 812              		@ sp needed
 813 0016 80BD     		pop	{r7, pc}
 814              	.L58:
 815              		.align	2
 816              	.L57:
 817 0018 28023A40 		.word	1077543464
 818              		.cfi_endproc
 819              	.LFE14:
 820              		.size	ADC_SAP_SetSatMask, .-ADC_SAP_SetSatMask
 821              		.section	.text.ADC_SAP_SetOffset,"ax",%progbits
 822              		.align	2
 823              		.global	ADC_SAP_SetOffset
 824              		.code	16
 825              		.thumb_func
 826              		.type	ADC_SAP_SetOffset, %function
 827              	ADC_SAP_SetOffset:
 828              	.LFB15:
 665:.\Generated_Source\PSoC4/ADC_SAP.c **** 
 666:.\Generated_Source\PSoC4/ADC_SAP.c **** 
 667:.\Generated_Source\PSoC4/ADC_SAP.c **** /*******************************************************************************
 668:.\Generated_Source\PSoC4/ADC_SAP.c **** * Function Name: ADC_SAP_SetOffset
 669:.\Generated_Source\PSoC4/ADC_SAP.c **** ********************************************************************************
 670:.\Generated_Source\PSoC4/ADC_SAP.c **** *
 671:.\Generated_Source\PSoC4/ADC_SAP.c **** * Summary:
 672:.\Generated_Source\PSoC4/ADC_SAP.c **** *   Description: Sets the ADC offset which is used by the functions
 673:.\Generated_Source\PSoC4/ADC_SAP.c **** *   ADC_CountsTo_uVolts, ADC_CountsTo_mVolts and ADC_CountsTo_Volts
 674:.\Generated_Source\PSoC4/ADC_SAP.c **** *   to substract the offset from the given reading
 675:.\Generated_Source\PSoC4/ADC_SAP.c **** *   before calculating the voltage conversion.
 676:.\Generated_Source\PSoC4/ADC_SAP.c **** *
 677:.\Generated_Source\PSoC4/ADC_SAP.c **** * Parameters:
 678:.\Generated_Source\PSoC4/ADC_SAP.c **** *  chan: ADC channel number.
 679:.\Generated_Source\PSoC4/ADC_SAP.c **** *  offset: This value is a measured value when the
 680:.\Generated_Source\PSoC4/ADC_SAP.c **** *          inputs are shorted or connected to the same input voltage.
 681:.\Generated_Source\PSoC4/ADC_SAP.c **** *
 682:.\Generated_Source\PSoC4/ADC_SAP.c **** * Return:
 683:.\Generated_Source\PSoC4/ADC_SAP.c **** *  None.
 684:.\Generated_Source\PSoC4/ADC_SAP.c **** *
 685:.\Generated_Source\PSoC4/ADC_SAP.c **** * Global variables:
 686:.\Generated_Source\PSoC4/ADC_SAP.c **** *  ADC_SAP_Offset:  Modified to set the user provided offset.
 687:.\Generated_Source\PSoC4/ADC_SAP.c **** *
 688:.\Generated_Source\PSoC4/ADC_SAP.c **** *******************************************************************************/
 689:.\Generated_Source\PSoC4/ADC_SAP.c **** void ADC_SAP_SetOffset(uint32 chan, int16 offset)
 690:.\Generated_Source\PSoC4/ADC_SAP.c **** {
 829              		.loc 1 690 0
 830              		.cfi_startproc
 831 0000 80B5     		push	{r7, lr}
 832              		.cfi_def_cfa_offset 8
 833              		.cfi_offset 7, -8
 834              		.cfi_offset 14, -4
 835 0002 82B0     		sub	sp, sp, #8
 836              		.cfi_def_cfa_offset 16
 837 0004 00AF     		add	r7, sp, #0
 838              		.cfi_def_cfa_register 7
 839 0006 7860     		str	r0, [r7, #4]
 840 0008 0A1C     		mov	r2, r1
 841 000a BB1C     		add	r3, r7, #2
 842 000c 1A80     		strh	r2, [r3]
ARM GAS  C:\Users\zpstrwy\AppData\Local\Temp\cc1GCVkd.s 			page 28


 691:.\Generated_Source\PSoC4/ADC_SAP.c ****     /* Halt CPU in debug mode if channel is out of valid range */
 692:.\Generated_Source\PSoC4/ADC_SAP.c ****     CYASSERT(chan < ADC_SAP_TOTAL_CHANNELS_NUM);
 843              		.loc 1 692 0
 844 000e 7B68     		ldr	r3, [r7, #4]
 845 0010 002B     		cmp	r3, #0
 846 0012 02D0     		beq	.L60
 847              		.loc 1 692 0 is_stmt 0 discriminator 1
 848 0014 0020     		mov	r0, #0
 849 0016 FFF7FEFF 		bl	CyHalt
 850              	.L60:
 693:.\Generated_Source\PSoC4/ADC_SAP.c **** 
 694:.\Generated_Source\PSoC4/ADC_SAP.c ****     ADC_SAP_offset[chan] = offset;
 851              		.loc 1 694 0 is_stmt 1
 852 001a 044B     		ldr	r3, .L61
 853 001c 7A68     		ldr	r2, [r7, #4]
 854 001e 5200     		lsl	r2, r2, #1
 855 0020 B91C     		add	r1, r7, #2
 856 0022 0988     		ldrh	r1, [r1]
 857 0024 D152     		strh	r1, [r2, r3]
 695:.\Generated_Source\PSoC4/ADC_SAP.c **** }
 858              		.loc 1 695 0
 859 0026 BD46     		mov	sp, r7
 860 0028 02B0     		add	sp, sp, #8
 861              		@ sp needed
 862 002a 80BD     		pop	{r7, pc}
 863              	.L62:
 864              		.align	2
 865              	.L61:
 866 002c 00000000 		.word	ADC_SAP_offset
 867              		.cfi_endproc
 868              	.LFE15:
 869              		.size	ADC_SAP_SetOffset, .-ADC_SAP_SetOffset
 870              		.section	.text.ADC_SAP_SetGain,"ax",%progbits
 871              		.align	2
 872              		.global	ADC_SAP_SetGain
 873              		.code	16
 874              		.thumb_func
 875              		.type	ADC_SAP_SetGain, %function
 876              	ADC_SAP_SetGain:
 877              	.LFB16:
 696:.\Generated_Source\PSoC4/ADC_SAP.c **** 
 697:.\Generated_Source\PSoC4/ADC_SAP.c **** 
 698:.\Generated_Source\PSoC4/ADC_SAP.c **** /*******************************************************************************
 699:.\Generated_Source\PSoC4/ADC_SAP.c **** * Function Name: ADC_SAP_SetGain
 700:.\Generated_Source\PSoC4/ADC_SAP.c **** ********************************************************************************
 701:.\Generated_Source\PSoC4/ADC_SAP.c **** *
 702:.\Generated_Source\PSoC4/ADC_SAP.c **** * Summary:
 703:.\Generated_Source\PSoC4/ADC_SAP.c **** *  Description: Sets the ADC gain in counts per 10 volt for the voltage
 704:.\Generated_Source\PSoC4/ADC_SAP.c **** *  conversion functions below. This value is set by default by the
 705:.\Generated_Source\PSoC4/ADC_SAP.c **** *  reference and input range settings. It should only be used to further
 706:.\Generated_Source\PSoC4/ADC_SAP.c **** *  calibrate the ADC with a known input or if an external reference is
 707:.\Generated_Source\PSoC4/ADC_SAP.c **** *  used. Affects the ADC_CountsTo_uVolts, ADC_CountsTo_mVolts
 708:.\Generated_Source\PSoC4/ADC_SAP.c **** *  and ADC_CountsTo_Volts functions by supplying the correct
 709:.\Generated_Source\PSoC4/ADC_SAP.c **** *  conversion between ADC counts and voltage.
 710:.\Generated_Source\PSoC4/ADC_SAP.c **** *
 711:.\Generated_Source\PSoC4/ADC_SAP.c **** * Parameters:
 712:.\Generated_Source\PSoC4/ADC_SAP.c **** *  chan: ADC channel number.
ARM GAS  C:\Users\zpstrwy\AppData\Local\Temp\cc1GCVkd.s 			page 29


 713:.\Generated_Source\PSoC4/ADC_SAP.c **** *  adcGain: ADC gain in counts per 10 volts.
 714:.\Generated_Source\PSoC4/ADC_SAP.c **** *
 715:.\Generated_Source\PSoC4/ADC_SAP.c **** * Return:
 716:.\Generated_Source\PSoC4/ADC_SAP.c **** *  None.
 717:.\Generated_Source\PSoC4/ADC_SAP.c **** *
 718:.\Generated_Source\PSoC4/ADC_SAP.c **** * Global variables:
 719:.\Generated_Source\PSoC4/ADC_SAP.c **** *  ADC_SAP_CountsPer10Volt:  modified to set the ADC gain in counts
 720:.\Generated_Source\PSoC4/ADC_SAP.c **** *   per 10 volt.
 721:.\Generated_Source\PSoC4/ADC_SAP.c **** *
 722:.\Generated_Source\PSoC4/ADC_SAP.c **** *******************************************************************************/
 723:.\Generated_Source\PSoC4/ADC_SAP.c **** void ADC_SAP_SetGain(uint32 chan, int32 adcGain)
 724:.\Generated_Source\PSoC4/ADC_SAP.c **** {
 878              		.loc 1 724 0
 879              		.cfi_startproc
 880 0000 80B5     		push	{r7, lr}
 881              		.cfi_def_cfa_offset 8
 882              		.cfi_offset 7, -8
 883              		.cfi_offset 14, -4
 884 0002 82B0     		sub	sp, sp, #8
 885              		.cfi_def_cfa_offset 16
 886 0004 00AF     		add	r7, sp, #0
 887              		.cfi_def_cfa_register 7
 888 0006 7860     		str	r0, [r7, #4]
 889 0008 3960     		str	r1, [r7]
 725:.\Generated_Source\PSoC4/ADC_SAP.c ****     /* Halt CPU in debug mode if channel is out of valid range */
 726:.\Generated_Source\PSoC4/ADC_SAP.c ****     CYASSERT(chan < ADC_SAP_TOTAL_CHANNELS_NUM);
 890              		.loc 1 726 0
 891 000a 7B68     		ldr	r3, [r7, #4]
 892 000c 002B     		cmp	r3, #0
 893 000e 02D0     		beq	.L64
 894              		.loc 1 726 0 is_stmt 0 discriminator 1
 895 0010 0020     		mov	r0, #0
 896 0012 FFF7FEFF 		bl	CyHalt
 897              	.L64:
 727:.\Generated_Source\PSoC4/ADC_SAP.c **** 
 728:.\Generated_Source\PSoC4/ADC_SAP.c ****     ADC_SAP_countsPer10Volt[chan] = adcGain;
 898              		.loc 1 728 0 is_stmt 1
 899 0016 044B     		ldr	r3, .L65
 900 0018 7A68     		ldr	r2, [r7, #4]
 901 001a 9200     		lsl	r2, r2, #2
 902 001c 3968     		ldr	r1, [r7]
 903 001e D150     		str	r1, [r2, r3]
 729:.\Generated_Source\PSoC4/ADC_SAP.c **** }
 904              		.loc 1 729 0
 905 0020 BD46     		mov	sp, r7
 906 0022 02B0     		add	sp, sp, #8
 907              		@ sp needed
 908 0024 80BD     		pop	{r7, pc}
 909              	.L66:
 910 0026 C046     		.align	2
 911              	.L65:
 912 0028 00000000 		.word	ADC_SAP_countsPer10Volt
 913              		.cfi_endproc
 914              	.LFE16:
 915              		.size	ADC_SAP_SetGain, .-ADC_SAP_SetGain
 916              		.section	.text.ADC_SAP_CountsTo_mVolts,"ax",%progbits
 917              		.align	2
ARM GAS  C:\Users\zpstrwy\AppData\Local\Temp\cc1GCVkd.s 			page 30


 918              		.global	ADC_SAP_CountsTo_mVolts
 919              		.code	16
 920              		.thumb_func
 921              		.type	ADC_SAP_CountsTo_mVolts, %function
 922              	ADC_SAP_CountsTo_mVolts:
 923              	.LFB17:
 730:.\Generated_Source\PSoC4/ADC_SAP.c **** 
 731:.\Generated_Source\PSoC4/ADC_SAP.c **** 
 732:.\Generated_Source\PSoC4/ADC_SAP.c **** #if(ADC_SAP_DEFAULT_JUSTIFICATION_SEL == ADC_SAP__RIGHT)
 733:.\Generated_Source\PSoC4/ADC_SAP.c **** 
 734:.\Generated_Source\PSoC4/ADC_SAP.c **** 
 735:.\Generated_Source\PSoC4/ADC_SAP.c ****     /*******************************************************************************
 736:.\Generated_Source\PSoC4/ADC_SAP.c ****     * Function Name: ADC_SAP_CountsTo_mVolts
 737:.\Generated_Source\PSoC4/ADC_SAP.c ****     ********************************************************************************
 738:.\Generated_Source\PSoC4/ADC_SAP.c ****     *
 739:.\Generated_Source\PSoC4/ADC_SAP.c ****     * Summary:
 740:.\Generated_Source\PSoC4/ADC_SAP.c ****     *  This function converts ADC counts to mVolts
 741:.\Generated_Source\PSoC4/ADC_SAP.c ****     *  This function is not available when left data format justification selected.
 742:.\Generated_Source\PSoC4/ADC_SAP.c ****     *
 743:.\Generated_Source\PSoC4/ADC_SAP.c ****     * Parameters:
 744:.\Generated_Source\PSoC4/ADC_SAP.c ****     *  chan: The ADC channel number.
 745:.\Generated_Source\PSoC4/ADC_SAP.c ****     *  adcCounts: Result from the ADC conversion
 746:.\Generated_Source\PSoC4/ADC_SAP.c ****     *
 747:.\Generated_Source\PSoC4/ADC_SAP.c ****     * Return:
 748:.\Generated_Source\PSoC4/ADC_SAP.c ****     *  Results in mVolts
 749:.\Generated_Source\PSoC4/ADC_SAP.c ****     *
 750:.\Generated_Source\PSoC4/ADC_SAP.c ****     * Global variables:
 751:.\Generated_Source\PSoC4/ADC_SAP.c ****     *  ADC_SAP_countsPer10Volt:  used to convert ADC counts to mVolts.
 752:.\Generated_Source\PSoC4/ADC_SAP.c ****     *  ADC_SAP_Offset:  Used as the offset while converting ADC counts
 753:.\Generated_Source\PSoC4/ADC_SAP.c ****     *   to mVolts.
 754:.\Generated_Source\PSoC4/ADC_SAP.c ****     *
 755:.\Generated_Source\PSoC4/ADC_SAP.c ****     *******************************************************************************/
 756:.\Generated_Source\PSoC4/ADC_SAP.c ****     int16 ADC_SAP_CountsTo_mVolts(uint32 chan, int16 adcCounts)
 757:.\Generated_Source\PSoC4/ADC_SAP.c ****     {
 924              		.loc 1 757 0
 925              		.cfi_startproc
 926 0000 80B5     		push	{r7, lr}
 927              		.cfi_def_cfa_offset 8
 928              		.cfi_offset 7, -8
 929              		.cfi_offset 14, -4
 930 0002 84B0     		sub	sp, sp, #16
 931              		.cfi_def_cfa_offset 24
 932 0004 00AF     		add	r7, sp, #0
 933              		.cfi_def_cfa_register 7
 934 0006 7860     		str	r0, [r7, #4]
 935 0008 0A1C     		mov	r2, r1
 936 000a BB1C     		add	r3, r7, #2
 937 000c 1A80     		strh	r2, [r3]
 758:.\Generated_Source\PSoC4/ADC_SAP.c ****         int16 mVolts;
 759:.\Generated_Source\PSoC4/ADC_SAP.c **** 
 760:.\Generated_Source\PSoC4/ADC_SAP.c ****         /* Halt CPU in debug mode if channel is out of valid range */
 761:.\Generated_Source\PSoC4/ADC_SAP.c ****         CYASSERT(chan < ADC_SAP_TOTAL_CHANNELS_NUM);
 938              		.loc 1 761 0
 939 000e 7B68     		ldr	r3, [r7, #4]
 940 0010 002B     		cmp	r3, #0
 941 0012 02D0     		beq	.L68
 942              		.loc 1 761 0 is_stmt 0 discriminator 1
ARM GAS  C:\Users\zpstrwy\AppData\Local\Temp\cc1GCVkd.s 			page 31


 943 0014 0020     		mov	r0, #0
 944 0016 FFF7FEFF 		bl	CyHalt
 945              	.L68:
 762:.\Generated_Source\PSoC4/ADC_SAP.c **** 
 763:.\Generated_Source\PSoC4/ADC_SAP.c ****         /* Divide the adcCount when accumulate averaging mode selected */
 764:.\Generated_Source\PSoC4/ADC_SAP.c ****         #if(ADC_SAP_DEFAULT_AVG_MODE == ADC_SAP__ACCUMULATE)
 765:.\Generated_Source\PSoC4/ADC_SAP.c ****             if((ADC_SAP_channelsConfig[chan] & ADC_SAP_AVERAGING_EN) != 0u)
 766:.\Generated_Source\PSoC4/ADC_SAP.c ****             {
 767:.\Generated_Source\PSoC4/ADC_SAP.c ****                 adcCounts /= ADC_SAP_DEFAULT_AVG_SAMPLES_DIV;
 768:.\Generated_Source\PSoC4/ADC_SAP.c ****             }
 769:.\Generated_Source\PSoC4/ADC_SAP.c ****         #endif /* ADC_SAP_DEFAULT_AVG_MODE == ADC_SAP__ACCUMULATE */
 770:.\Generated_Source\PSoC4/ADC_SAP.c **** 
 771:.\Generated_Source\PSoC4/ADC_SAP.c ****         /* Subtract ADC offset */
 772:.\Generated_Source\PSoC4/ADC_SAP.c ****         adcCounts -= ADC_SAP_offset[chan];
 946              		.loc 1 772 0 is_stmt 1
 947 001a 1F4B     		ldr	r3, .L74
 948 001c 7A68     		ldr	r2, [r7, #4]
 949 001e 5200     		lsl	r2, r2, #1
 950 0020 D35A     		ldrh	r3, [r2, r3]
 951 0022 99B2     		uxth	r1, r3
 952 0024 BB1C     		add	r3, r7, #2
 953 0026 1A88     		ldrh	r2, [r3]
 954 0028 8BB2     		uxth	r3, r1
 955 002a D31A     		sub	r3, r2, r3
 956 002c 9AB2     		uxth	r2, r3
 957 002e BB1C     		add	r3, r7, #2
 958 0030 1A80     		strh	r2, [r3]
 773:.\Generated_Source\PSoC4/ADC_SAP.c **** 
 774:.\Generated_Source\PSoC4/ADC_SAP.c ****         mVolts = (int16)((((int32)adcCounts * ADC_SAP_10MV_COUNTS) + ( (adcCounts > 0) ?
 959              		.loc 1 774 0
 960 0032 BB1C     		add	r3, r7, #2
 961 0034 0022     		mov	r2, #0
 962 0036 9B5E     		ldrsh	r3, [r3, r2]
 963 0038 184A     		ldr	r2, .L74+4
 964 003a 5A43     		mul	r2, r3
 775:.\Generated_Source\PSoC4/ADC_SAP.c ****                  (ADC_SAP_countsPer10Volt[chan] / 2) : (-(ADC_SAP_countsPer10Volt[chan] / 2)) ))
 965              		.loc 1 775 0
 966 003c BB1C     		add	r3, r7, #2
 967 003e 0021     		mov	r1, #0
 968 0040 5B5E     		ldrsh	r3, [r3, r1]
 969 0042 002B     		cmp	r3, #0
 970 0044 08DD     		ble	.L69
 971              		.loc 1 775 0 is_stmt 0 discriminator 1
 972 0046 164B     		ldr	r3, .L74+8
 973 0048 7968     		ldr	r1, [r7, #4]
 974 004a 8900     		lsl	r1, r1, #2
 975 004c CB58     		ldr	r3, [r1, r3]
 976 004e 002B     		cmp	r3, #0
 977 0050 00DA     		bge	.L70
 978 0052 0133     		add	r3, r3, #1
 979              	.L70:
 980 0054 5B10     		asr	r3, r3, #1
 981 0056 08E0     		b	.L71
 982              	.L69:
 983              		.loc 1 775 0 discriminator 2
 984 0058 114B     		ldr	r3, .L74+8
 985 005a 7968     		ldr	r1, [r7, #4]
ARM GAS  C:\Users\zpstrwy\AppData\Local\Temp\cc1GCVkd.s 			page 32


 986 005c 8900     		lsl	r1, r1, #2
 987 005e CB58     		ldr	r3, [r1, r3]
 988 0060 002B     		cmp	r3, #0
 989 0062 00DA     		bge	.L72
 990 0064 0133     		add	r3, r3, #1
 991              	.L72:
 992 0066 5B10     		asr	r3, r3, #1
 993 0068 5B42     		neg	r3, r3
 994              	.L71:
 774:.\Generated_Source\PSoC4/ADC_SAP.c ****                  (ADC_SAP_countsPer10Volt[chan] / 2) : (-(ADC_SAP_countsPer10Volt[chan] / 2)) ))
 995              		.loc 1 774 0 is_stmt 1
 996 006a D118     		add	r1, r2, r3
 776:.\Generated_Source\PSoC4/ADC_SAP.c ****                  / ADC_SAP_countsPer10Volt[chan]);
 997              		.loc 1 776 0
 998 006c 0C4B     		ldr	r3, .L74+8
 999 006e 7A68     		ldr	r2, [r7, #4]
 1000 0070 9200     		lsl	r2, r2, #2
 1001 0072 D358     		ldr	r3, [r2, r3]
 1002 0074 081C     		mov	r0, r1
 1003 0076 191C     		mov	r1, r3
 1004 0078 FFF7FEFF 		bl	__aeabi_idiv
 1005 007c 031C     		mov	r3, r0
 1006 007e 1A1C     		mov	r2, r3
 774:.\Generated_Source\PSoC4/ADC_SAP.c ****                  (ADC_SAP_countsPer10Volt[chan] / 2) : (-(ADC_SAP_countsPer10Volt[chan] / 2)) ))
 1007              		.loc 1 774 0
 1008 0080 0E23     		mov	r3, #14
 1009 0082 FB18     		add	r3, r7, r3
 1010 0084 1A80     		strh	r2, [r3]
 777:.\Generated_Source\PSoC4/ADC_SAP.c **** 
 778:.\Generated_Source\PSoC4/ADC_SAP.c ****         return( mVolts );
 1011              		.loc 1 778 0
 1012 0086 0E23     		mov	r3, #14
 1013 0088 FB18     		add	r3, r7, r3
 1014 008a 1B88     		ldrh	r3, [r3]
 1015 008c 1BB2     		sxth	r3, r3
 779:.\Generated_Source\PSoC4/ADC_SAP.c ****     }
 1016              		.loc 1 779 0
 1017 008e 181C     		mov	r0, r3
 1018 0090 BD46     		mov	sp, r7
 1019 0092 04B0     		add	sp, sp, #16
 1020              		@ sp needed
 1021 0094 80BD     		pop	{r7, pc}
 1022              	.L75:
 1023 0096 C046     		.align	2
 1024              	.L74:
 1025 0098 00000000 		.word	ADC_SAP_offset
 1026 009c 10270000 		.word	10000
 1027 00a0 00000000 		.word	ADC_SAP_countsPer10Volt
 1028              		.cfi_endproc
 1029              	.LFE17:
 1030              		.size	ADC_SAP_CountsTo_mVolts, .-ADC_SAP_CountsTo_mVolts
 1031              		.global	__aeabi_lmul
 1032              		.global	__aeabi_ldivmod
 1033              		.section	.text.ADC_SAP_CountsTo_uVolts,"ax",%progbits
 1034              		.align	2
 1035              		.global	ADC_SAP_CountsTo_uVolts
 1036              		.code	16
ARM GAS  C:\Users\zpstrwy\AppData\Local\Temp\cc1GCVkd.s 			page 33


 1037              		.thumb_func
 1038              		.type	ADC_SAP_CountsTo_uVolts, %function
 1039              	ADC_SAP_CountsTo_uVolts:
 1040              	.LFB18:
 780:.\Generated_Source\PSoC4/ADC_SAP.c **** 
 781:.\Generated_Source\PSoC4/ADC_SAP.c **** 
 782:.\Generated_Source\PSoC4/ADC_SAP.c ****     /*******************************************************************************
 783:.\Generated_Source\PSoC4/ADC_SAP.c ****     * Function Name: ADC_SAP_CountsTo_uVolts
 784:.\Generated_Source\PSoC4/ADC_SAP.c ****     ********************************************************************************
 785:.\Generated_Source\PSoC4/ADC_SAP.c ****     *
 786:.\Generated_Source\PSoC4/ADC_SAP.c ****     * Summary:
 787:.\Generated_Source\PSoC4/ADC_SAP.c ****     *  This function converts ADC counts to micro Volts
 788:.\Generated_Source\PSoC4/ADC_SAP.c ****     *  This function is not available when left data format justification selected.
 789:.\Generated_Source\PSoC4/ADC_SAP.c ****     *
 790:.\Generated_Source\PSoC4/ADC_SAP.c ****     * Parameters:
 791:.\Generated_Source\PSoC4/ADC_SAP.c ****     *  chan: The ADC channel number.
 792:.\Generated_Source\PSoC4/ADC_SAP.c ****     *  adcCounts: Result from the ADC conversion
 793:.\Generated_Source\PSoC4/ADC_SAP.c ****     *
 794:.\Generated_Source\PSoC4/ADC_SAP.c ****     * Return:
 795:.\Generated_Source\PSoC4/ADC_SAP.c ****     *  Results in uVolts
 796:.\Generated_Source\PSoC4/ADC_SAP.c ****     *
 797:.\Generated_Source\PSoC4/ADC_SAP.c ****     * Global variables:
 798:.\Generated_Source\PSoC4/ADC_SAP.c ****     *  ADC_SAP_countsPer10Volt:  used to convert ADC counts to uVolts.
 799:.\Generated_Source\PSoC4/ADC_SAP.c ****     *  ADC_SAP_Offset:  Used as the offset while converting ADC counts
 800:.\Generated_Source\PSoC4/ADC_SAP.c ****     *   to mVolts.
 801:.\Generated_Source\PSoC4/ADC_SAP.c ****     *
 802:.\Generated_Source\PSoC4/ADC_SAP.c ****     * Theory:
 803:.\Generated_Source\PSoC4/ADC_SAP.c ****     *  Care must be taken to not exceed the maximum value for a 31 bit signed
 804:.\Generated_Source\PSoC4/ADC_SAP.c ****     *  number in the conversion to uVolts and at the same time not loose
 805:.\Generated_Source\PSoC4/ADC_SAP.c ****     *  resolution.
 806:.\Generated_Source\PSoC4/ADC_SAP.c ****     *  To convert adcCounts to microVolts it is required to be multiplied
 807:.\Generated_Source\PSoC4/ADC_SAP.c ****     *  on 10 million and later divide on gain in counts per 10V.
 808:.\Generated_Source\PSoC4/ADC_SAP.c ****     *
 809:.\Generated_Source\PSoC4/ADC_SAP.c ****     *******************************************************************************/
 810:.\Generated_Source\PSoC4/ADC_SAP.c ****     int32 ADC_SAP_CountsTo_uVolts(uint32 chan, int16 adcCounts)
 811:.\Generated_Source\PSoC4/ADC_SAP.c ****     {
 1041              		.loc 1 811 0
 1042              		.cfi_startproc
 1043 0000 B0B5     		push	{r4, r5, r7, lr}
 1044              		.cfi_def_cfa_offset 16
 1045              		.cfi_offset 4, -16
 1046              		.cfi_offset 5, -12
 1047              		.cfi_offset 7, -8
 1048              		.cfi_offset 14, -4
 1049 0002 86B0     		sub	sp, sp, #24
 1050              		.cfi_def_cfa_offset 40
 1051 0004 00AF     		add	r7, sp, #0
 1052              		.cfi_def_cfa_register 7
 1053 0006 F860     		str	r0, [r7, #12]
 1054 0008 0A1C     		mov	r2, r1
 1055 000a 0A23     		mov	r3, #10
 1056 000c FB18     		add	r3, r7, r3
 1057 000e 1A80     		strh	r2, [r3]
 812:.\Generated_Source\PSoC4/ADC_SAP.c ****         int64 uVolts;
 813:.\Generated_Source\PSoC4/ADC_SAP.c **** 
 814:.\Generated_Source\PSoC4/ADC_SAP.c ****         /* Halt CPU in debug mode if channel is out of valid range */
 815:.\Generated_Source\PSoC4/ADC_SAP.c ****         CYASSERT(chan < ADC_SAP_TOTAL_CHANNELS_NUM);
ARM GAS  C:\Users\zpstrwy\AppData\Local\Temp\cc1GCVkd.s 			page 34


 1058              		.loc 1 815 0
 1059 0010 FB68     		ldr	r3, [r7, #12]
 1060 0012 002B     		cmp	r3, #0
 1061 0014 02D0     		beq	.L77
 1062              		.loc 1 815 0 is_stmt 0 discriminator 1
 1063 0016 0020     		mov	r0, #0
 1064 0018 FFF7FEFF 		bl	CyHalt
 1065              	.L77:
 816:.\Generated_Source\PSoC4/ADC_SAP.c **** 
 817:.\Generated_Source\PSoC4/ADC_SAP.c ****         /* Divide the adcCount when accumulate averaging mode selected */
 818:.\Generated_Source\PSoC4/ADC_SAP.c ****         #if(ADC_SAP_DEFAULT_AVG_MODE == ADC_SAP__ACCUMULATE)
 819:.\Generated_Source\PSoC4/ADC_SAP.c ****             if((ADC_SAP_channelsConfig[chan] & ADC_SAP_AVERAGING_EN) != 0u)
 820:.\Generated_Source\PSoC4/ADC_SAP.c ****             {
 821:.\Generated_Source\PSoC4/ADC_SAP.c ****                 adcCounts /= ADC_SAP_DEFAULT_AVG_SAMPLES_DIV;
 822:.\Generated_Source\PSoC4/ADC_SAP.c ****             }
 823:.\Generated_Source\PSoC4/ADC_SAP.c ****         #endif /* ADC_SAP_DEFAULT_AVG_MODE == ADC_SAP__ACCUMULATE */
 824:.\Generated_Source\PSoC4/ADC_SAP.c **** 
 825:.\Generated_Source\PSoC4/ADC_SAP.c ****         /* Subtract ADC offset */
 826:.\Generated_Source\PSoC4/ADC_SAP.c ****         adcCounts -= ADC_SAP_offset[chan];
 1066              		.loc 1 826 0 is_stmt 1
 1067 001c 194B     		ldr	r3, .L79
 1068 001e FA68     		ldr	r2, [r7, #12]
 1069 0020 5200     		lsl	r2, r2, #1
 1070 0022 D35A     		ldrh	r3, [r2, r3]
 1071 0024 99B2     		uxth	r1, r3
 1072 0026 0A23     		mov	r3, #10
 1073 0028 FB18     		add	r3, r7, r3
 1074 002a 1A88     		ldrh	r2, [r3]
 1075 002c 8BB2     		uxth	r3, r1
 1076 002e D31A     		sub	r3, r2, r3
 1077 0030 9AB2     		uxth	r2, r3
 1078 0032 0A23     		mov	r3, #10
 1079 0034 FB18     		add	r3, r7, r3
 1080 0036 1A80     		strh	r2, [r3]
 827:.\Generated_Source\PSoC4/ADC_SAP.c **** 
 828:.\Generated_Source\PSoC4/ADC_SAP.c ****         uVolts = ((int64)adcCounts * ADC_SAP_10UV_COUNTS) / ADC_SAP_countsPer10Volt[chan];
 1081              		.loc 1 828 0
 1082 0038 0A23     		mov	r3, #10
 1083 003a FB18     		add	r3, r7, r3
 1084 003c 1B88     		ldrh	r3, [r3]
 1085 003e 1BB2     		sxth	r3, r3
 1086 0040 3B60     		str	r3, [r7]
 1087 0042 DB17     		asr	r3, r3, #31
 1088 0044 7B60     		str	r3, [r7, #4]
 1089 0046 3868     		ldr	r0, [r7]
 1090 0048 7968     		ldr	r1, [r7, #4]
 1091 004a 0F4A     		ldr	r2, .L79+4
 1092 004c 0023     		mov	r3, #0
 1093 004e FFF7FEFF 		bl	__aeabi_lmul
 1094 0052 021C     		mov	r2, r0
 1095 0054 0B1C     		mov	r3, r1
 1096 0056 101C     		mov	r0, r2
 1097 0058 191C     		mov	r1, r3
 1098 005a 0C4B     		ldr	r3, .L79+8
 1099 005c FA68     		ldr	r2, [r7, #12]
 1100 005e 9200     		lsl	r2, r2, #2
 1101 0060 D358     		ldr	r3, [r2, r3]
ARM GAS  C:\Users\zpstrwy\AppData\Local\Temp\cc1GCVkd.s 			page 35


 1102 0062 1C1C     		mov	r4, r3
 1103 0064 DB17     		asr	r3, r3, #31
 1104 0066 1D1C     		mov	r5, r3
 1105 0068 221C     		mov	r2, r4
 1106 006a 2B1C     		mov	r3, r5
 1107 006c FFF7FEFF 		bl	__aeabi_ldivmod
 1108 0070 031C     		mov	r3, r0
 1109 0072 0C1C     		mov	r4, r1
 1110 0074 3B61     		str	r3, [r7, #16]
 1111 0076 7C61     		str	r4, [r7, #20]
 829:.\Generated_Source\PSoC4/ADC_SAP.c **** 
 830:.\Generated_Source\PSoC4/ADC_SAP.c ****         return( (int32)uVolts );
 1112              		.loc 1 830 0
 1113 0078 3B69     		ldr	r3, [r7, #16]
 831:.\Generated_Source\PSoC4/ADC_SAP.c ****     }
 1114              		.loc 1 831 0
 1115 007a 181C     		mov	r0, r3
 1116 007c BD46     		mov	sp, r7
 1117 007e 06B0     		add	sp, sp, #24
 1118              		@ sp needed
 1119 0080 B0BD     		pop	{r4, r5, r7, pc}
 1120              	.L80:
 1121 0082 C046     		.align	2
 1122              	.L79:
 1123 0084 00000000 		.word	ADC_SAP_offset
 1124 0088 80969800 		.word	10000000
 1125 008c 00000000 		.word	ADC_SAP_countsPer10Volt
 1126              		.cfi_endproc
 1127              	.LFE18:
 1128              		.size	ADC_SAP_CountsTo_uVolts, .-ADC_SAP_CountsTo_uVolts
 1129              		.global	__aeabi_i2f
 1130              		.global	__aeabi_fmul
 1131              		.global	__aeabi_fdiv
 1132              		.section	.text.ADC_SAP_CountsTo_Volts,"ax",%progbits
 1133              		.align	2
 1134              		.global	ADC_SAP_CountsTo_Volts
 1135              		.code	16
 1136              		.thumb_func
 1137              		.type	ADC_SAP_CountsTo_Volts, %function
 1138              	ADC_SAP_CountsTo_Volts:
 1139              	.LFB19:
 832:.\Generated_Source\PSoC4/ADC_SAP.c **** 
 833:.\Generated_Source\PSoC4/ADC_SAP.c **** 
 834:.\Generated_Source\PSoC4/ADC_SAP.c ****     /*******************************************************************************
 835:.\Generated_Source\PSoC4/ADC_SAP.c ****     * Function Name: ADC_SAP_CountsTo_Volts
 836:.\Generated_Source\PSoC4/ADC_SAP.c ****     ********************************************************************************
 837:.\Generated_Source\PSoC4/ADC_SAP.c ****     *
 838:.\Generated_Source\PSoC4/ADC_SAP.c ****     * Summary:
 839:.\Generated_Source\PSoC4/ADC_SAP.c ****     *  Converts the ADC output to Volts as a floating point number.
 840:.\Generated_Source\PSoC4/ADC_SAP.c ****     *  This function is not available when left data format justification selected.
 841:.\Generated_Source\PSoC4/ADC_SAP.c ****     *
 842:.\Generated_Source\PSoC4/ADC_SAP.c ****     * Parameters:
 843:.\Generated_Source\PSoC4/ADC_SAP.c ****     *  chan: The ADC channel number.
 844:.\Generated_Source\PSoC4/ADC_SAP.c ****     *  Result from the ADC conversion
 845:.\Generated_Source\PSoC4/ADC_SAP.c ****     *
 846:.\Generated_Source\PSoC4/ADC_SAP.c ****     * Return:
 847:.\Generated_Source\PSoC4/ADC_SAP.c ****     *  Results in Volts
ARM GAS  C:\Users\zpstrwy\AppData\Local\Temp\cc1GCVkd.s 			page 36


 848:.\Generated_Source\PSoC4/ADC_SAP.c ****     *
 849:.\Generated_Source\PSoC4/ADC_SAP.c ****     * Global variables:
 850:.\Generated_Source\PSoC4/ADC_SAP.c ****     *  ADC_SAP_countsPer10Volt:  used to convert ADC counts to Volts.
 851:.\Generated_Source\PSoC4/ADC_SAP.c ****     *  ADC_SAP_Offset:  Used as the offset while converting ADC counts
 852:.\Generated_Source\PSoC4/ADC_SAP.c ****     *   to mVolts.
 853:.\Generated_Source\PSoC4/ADC_SAP.c ****     *
 854:.\Generated_Source\PSoC4/ADC_SAP.c ****     *******************************************************************************/
 855:.\Generated_Source\PSoC4/ADC_SAP.c ****     float32 ADC_SAP_CountsTo_Volts(uint32 chan, int16 adcCounts)
 856:.\Generated_Source\PSoC4/ADC_SAP.c ****     {
 1140              		.loc 1 856 0
 1141              		.cfi_startproc
 1142 0000 90B5     		push	{r4, r7, lr}
 1143              		.cfi_def_cfa_offset 12
 1144              		.cfi_offset 4, -12
 1145              		.cfi_offset 7, -8
 1146              		.cfi_offset 14, -4
 1147 0002 85B0     		sub	sp, sp, #20
 1148              		.cfi_def_cfa_offset 32
 1149 0004 00AF     		add	r7, sp, #0
 1150              		.cfi_def_cfa_register 7
 1151 0006 7860     		str	r0, [r7, #4]
 1152 0008 0A1C     		mov	r2, r1
 1153 000a BB1C     		add	r3, r7, #2
 1154 000c 1A80     		strh	r2, [r3]
 857:.\Generated_Source\PSoC4/ADC_SAP.c ****         float32 volts;
 858:.\Generated_Source\PSoC4/ADC_SAP.c **** 
 859:.\Generated_Source\PSoC4/ADC_SAP.c ****         /* Halt CPU in debug mode if channel is out of valid range */
 860:.\Generated_Source\PSoC4/ADC_SAP.c ****         CYASSERT(chan < ADC_SAP_TOTAL_CHANNELS_NUM);
 1155              		.loc 1 860 0
 1156 000e 7B68     		ldr	r3, [r7, #4]
 1157 0010 002B     		cmp	r3, #0
 1158 0012 02D0     		beq	.L82
 1159              		.loc 1 860 0 is_stmt 0 discriminator 1
 1160 0014 0020     		mov	r0, #0
 1161 0016 FFF7FEFF 		bl	CyHalt
 1162              	.L82:
 861:.\Generated_Source\PSoC4/ADC_SAP.c **** 
 862:.\Generated_Source\PSoC4/ADC_SAP.c ****         /* Divide the adcCount when accumulate averaging mode selected */
 863:.\Generated_Source\PSoC4/ADC_SAP.c ****         #if(ADC_SAP_DEFAULT_AVG_MODE == ADC_SAP__ACCUMULATE)
 864:.\Generated_Source\PSoC4/ADC_SAP.c ****             if((ADC_SAP_channelsConfig[chan] & ADC_SAP_AVERAGING_EN) != 0u)
 865:.\Generated_Source\PSoC4/ADC_SAP.c ****             {
 866:.\Generated_Source\PSoC4/ADC_SAP.c ****                 adcCounts /= ADC_SAP_DEFAULT_AVG_SAMPLES_DIV;
 867:.\Generated_Source\PSoC4/ADC_SAP.c ****             }
 868:.\Generated_Source\PSoC4/ADC_SAP.c ****         #endif /* ADC_SAP_DEFAULT_AVG_MODE == ADC_SAP__ACCUMULATE */
 869:.\Generated_Source\PSoC4/ADC_SAP.c **** 
 870:.\Generated_Source\PSoC4/ADC_SAP.c ****         /* Subtract ADC offset */
 871:.\Generated_Source\PSoC4/ADC_SAP.c ****         adcCounts -= ADC_SAP_offset[chan];
 1163              		.loc 1 871 0 is_stmt 1
 1164 001a 164B     		ldr	r3, .L84
 1165 001c 7A68     		ldr	r2, [r7, #4]
 1166 001e 5200     		lsl	r2, r2, #1
 1167 0020 D35A     		ldrh	r3, [r2, r3]
 1168 0022 99B2     		uxth	r1, r3
 1169 0024 BB1C     		add	r3, r7, #2
 1170 0026 1A88     		ldrh	r2, [r3]
 1171 0028 8BB2     		uxth	r3, r1
 1172 002a D31A     		sub	r3, r2, r3
ARM GAS  C:\Users\zpstrwy\AppData\Local\Temp\cc1GCVkd.s 			page 37


 1173 002c 9AB2     		uxth	r2, r3
 1174 002e BB1C     		add	r3, r7, #2
 1175 0030 1A80     		strh	r2, [r3]
 872:.\Generated_Source\PSoC4/ADC_SAP.c **** 
 873:.\Generated_Source\PSoC4/ADC_SAP.c ****         volts = ((float32)adcCounts * ADC_SAP_10V_COUNTS) / (float32)ADC_SAP_countsPer10Volt[chan];
 1176              		.loc 1 873 0
 1177 0032 BB1C     		add	r3, r7, #2
 1178 0034 0022     		mov	r2, #0
 1179 0036 9B5E     		ldrsh	r3, [r3, r2]
 1180 0038 181C     		mov	r0, r3
 1181 003a FFF7FEFF 		bl	__aeabi_i2f
 1182 003e 031C     		add	r3, r0, #0
 1183 0040 181C     		add	r0, r3, #0
 1184 0042 0D49     		ldr	r1, .L84+4
 1185 0044 FFF7FEFF 		bl	__aeabi_fmul
 1186 0048 031C     		add	r3, r0, #0
 1187 004a 1C1C     		add	r4, r3, #0
 1188 004c 0B4B     		ldr	r3, .L84+8
 1189 004e 7A68     		ldr	r2, [r7, #4]
 1190 0050 9200     		lsl	r2, r2, #2
 1191 0052 D358     		ldr	r3, [r2, r3]
 1192 0054 181C     		mov	r0, r3
 1193 0056 FFF7FEFF 		bl	__aeabi_i2f
 1194 005a 031C     		add	r3, r0, #0
 1195 005c 201C     		add	r0, r4, #0
 1196 005e 191C     		add	r1, r3, #0
 1197 0060 FFF7FEFF 		bl	__aeabi_fdiv
 1198 0064 031C     		add	r3, r0, #0
 1199 0066 FB60     		str	r3, [r7, #12]
 874:.\Generated_Source\PSoC4/ADC_SAP.c **** 
 875:.\Generated_Source\PSoC4/ADC_SAP.c ****         return( volts );
 1200              		.loc 1 875 0
 1201 0068 FB68     		ldr	r3, [r7, #12]
 876:.\Generated_Source\PSoC4/ADC_SAP.c ****     }
 1202              		.loc 1 876 0
 1203 006a 181C     		add	r0, r3, #0
 1204 006c BD46     		mov	sp, r7
 1205 006e 05B0     		add	sp, sp, #20
 1206              		@ sp needed
 1207 0070 90BD     		pop	{r4, r7, pc}
 1208              	.L85:
 1209 0072 C046     		.align	2
 1210              	.L84:
 1211 0074 00000000 		.word	ADC_SAP_offset
 1212 0078 00002041 		.word	1092616192
 1213 007c 00000000 		.word	ADC_SAP_countsPer10Volt
 1214              		.cfi_endproc
 1215              	.LFE19:
 1216              		.size	ADC_SAP_CountsTo_Volts, .-ADC_SAP_CountsTo_Volts
 1217              		.text
 1218              	.Letext0:
 1219              		.file 2 ".\\Generated_Source\\PSoC4\\cytypes.h"