ARM GAS  C:\Users\zpstrwy\AppData\Local\Temp\ccc9zD51.s 			page 1


   1              		.cpu cortex-m0
   2              		.fpu softvfp
   3              		.eabi_attribute 20, 1
   4              		.eabi_attribute 21, 1
   5              		.eabi_attribute 23, 3
   6              		.eabi_attribute 24, 1
   7              		.eabi_attribute 25, 1
   8              		.eabi_attribute 26, 1
   9              		.eabi_attribute 30, 6
  10              		.eabi_attribute 34, 0
  11              		.eabi_attribute 18, 4
  12              		.code	16
  13              		.file	"BLE_bts.c"
  14              		.text
  15              	.Ltext0:
  16              		.cfi_sections	.debug_frame
  17              		.global	cyBle_cmdReceivedFlag
  18              		.bss
  19              		.type	cyBle_cmdReceivedFlag, %object
  20              		.size	cyBle_cmdReceivedFlag, 1
  21              	cyBle_cmdReceivedFlag:
  22 0000 00       		.space	1
  23              		.global	cyBle_cmdLength
  24 0001 00       		.align	1
  25              		.type	cyBle_cmdLength, %object
  26              		.size	cyBle_cmdLength, 2
  27              	cyBle_cmdLength:
  28 0002 0000     		.space	2
  29              		.comm	cyBle_btsBuffPtr,4,4
  30              		.global	cyBle_btss
  31              		.section	.rodata
  32              		.align	2
  33              		.type	cyBle_btss, %object
  34              		.size	cyBle_btss, 6
  35              	cyBle_btss:
  36 0000 1100     		.short	17
  37 0002 1300     		.short	19
  38 0004 1400     		.short	20
  39 0006 0000     		.section	.text.CyBle_BtsWriteEventHandler,"ax",%progbits
  40              		.align	2
  41              		.global	CyBle_BtsWriteEventHandler
  42              		.code	16
  43              		.thumb_func
  44              		.type	CyBle_BtsWriteEventHandler, %function
  45              	CyBle_BtsWriteEventHandler:
  46              	.LFB2:
  47              		.file 1 ".\\Generated_Source\\PSoC4\\BLE_bts.c"
   1:.\Generated_Source\PSoC4/BLE_bts.c **** /***************************************************************************//**
   2:.\Generated_Source\PSoC4/BLE_bts.c **** * \file CYBLE_bts.c
   3:.\Generated_Source\PSoC4/BLE_bts.c **** * \version 3.10
   4:.\Generated_Source\PSoC4/BLE_bts.c **** * 
   5:.\Generated_Source\PSoC4/BLE_bts.c **** * \brief
   6:.\Generated_Source\PSoC4/BLE_bts.c **** *  Contains the source code for the Bootloader service.
   7:.\Generated_Source\PSoC4/BLE_bts.c **** * 
   8:.\Generated_Source\PSoC4/BLE_bts.c **** ********************************************************************************
   9:.\Generated_Source\PSoC4/BLE_bts.c **** * \copyright
  10:.\Generated_Source\PSoC4/BLE_bts.c **** * Copyright 2015-2016, Cypress Semiconductor Corporation.  All rights reserved.
ARM GAS  C:\Users\zpstrwy\AppData\Local\Temp\ccc9zD51.s 			page 2


  11:.\Generated_Source\PSoC4/BLE_bts.c **** * You may use this file only in accordance with the license, terms, conditions,
  12:.\Generated_Source\PSoC4/BLE_bts.c **** * disclaimers, and limitations in the end user license agreement accompanying
  13:.\Generated_Source\PSoC4/BLE_bts.c **** * the software package with which this file was provided.
  14:.\Generated_Source\PSoC4/BLE_bts.c **** *******************************************************************************/
  15:.\Generated_Source\PSoC4/BLE_bts.c **** 
  16:.\Generated_Source\PSoC4/BLE_bts.c **** #include "BLE_eventHandler.h"
  17:.\Generated_Source\PSoC4/BLE_bts.c **** 
  18:.\Generated_Source\PSoC4/BLE_bts.c **** uint8  cyBle_cmdReceivedFlag = 0u;
  19:.\Generated_Source\PSoC4/BLE_bts.c **** uint16 cyBle_cmdLength = 0u;
  20:.\Generated_Source\PSoC4/BLE_bts.c **** uint8  *cyBle_btsBuffPtr;
  21:.\Generated_Source\PSoC4/BLE_bts.c **** 
  22:.\Generated_Source\PSoC4/BLE_bts.c **** /* Generated code */
  23:.\Generated_Source\PSoC4/BLE_bts.c **** const CYBLE_BTSS_T cyBle_btss =
  24:.\Generated_Source\PSoC4/BLE_bts.c **** {
  25:.\Generated_Source\PSoC4/BLE_bts.c ****     0x0011u,    /* Handle of the BTS service */
  26:.\Generated_Source\PSoC4/BLE_bts.c ****     {
  27:.\Generated_Source\PSoC4/BLE_bts.c ****         
  28:.\Generated_Source\PSoC4/BLE_bts.c ****         /* Command characteristic */
  29:.\Generated_Source\PSoC4/BLE_bts.c ****         {
  30:.\Generated_Source\PSoC4/BLE_bts.c ****             0x0013u, /* Handle of the Packet characteristic */ 
  31:.\Generated_Source\PSoC4/BLE_bts.c ****             
  32:.\Generated_Source\PSoC4/BLE_bts.c ****             /* Array of Descriptors handles */
  33:.\Generated_Source\PSoC4/BLE_bts.c ****             {
  34:.\Generated_Source\PSoC4/BLE_bts.c ****                 0x0014u, /* Handle of the Client Characteristic Configuration descriptor */ 
  35:.\Generated_Source\PSoC4/BLE_bts.c ****             }, 
  36:.\Generated_Source\PSoC4/BLE_bts.c ****         }, 
  37:.\Generated_Source\PSoC4/BLE_bts.c ****     },
  38:.\Generated_Source\PSoC4/BLE_bts.c **** };
  39:.\Generated_Source\PSoC4/BLE_bts.c **** 
  40:.\Generated_Source\PSoC4/BLE_bts.c **** 
  41:.\Generated_Source\PSoC4/BLE_bts.c **** /******************************************************************************
  42:.\Generated_Source\PSoC4/BLE_bts.c **** * Function Name: CyBle_BtsWriteEventHandler
  43:.\Generated_Source\PSoC4/BLE_bts.c **** ***************************************************************************//**
  44:.\Generated_Source\PSoC4/BLE_bts.c **** * 
  45:.\Generated_Source\PSoC4/BLE_bts.c **** *  Handles a Write Request event for the Bootloader Service.
  46:.\Generated_Source\PSoC4/BLE_bts.c **** * 
  47:.\Generated_Source\PSoC4/BLE_bts.c **** *  \param CYBLE_GATTS_WRITE_REQ_PARAM_T * eventParam: The pointer to data that came
  48:.\Generated_Source\PSoC4/BLE_bts.c **** *                                              with a Write Request for BTS.
  49:.\Generated_Source\PSoC4/BLE_bts.c **** * 
  50:.\Generated_Source\PSoC4/BLE_bts.c **** * \return
  51:.\Generated_Source\PSoC4/BLE_bts.c **** *  Return a value of type CYBLE_GATT_ERR_CODE_T:
  52:.\Generated_Source\PSoC4/BLE_bts.c **** *   * CYBLE_GATT_ERR_NONE - A function finished successfully.
  53:.\Generated_Source\PSoC4/BLE_bts.c **** *   * CYBLE_GATT_ERR_INVALID_HANDLE - The Handle of the Bootloader
  54:.\Generated_Source\PSoC4/BLE_bts.c **** *                                     Characteristic's Client Configuration
  55:.\Generated_Source\PSoC4/BLE_bts.c **** *                                     Characteristic Descriptor is not valid.
  56:.\Generated_Source\PSoC4/BLE_bts.c **** *   * CYBLE_GATT_ERR_WRITE_NOT_PERMITTED - Write operation is not permitted on 
  57:.\Generated_Source\PSoC4/BLE_bts.c **** *                                          this attribute.
  58:.\Generated_Source\PSoC4/BLE_bts.c **** *   * CYBLE_GATT_ERR_UNLIKELY_ERROR - An Internal Stack error occurred.
  59:.\Generated_Source\PSoC4/BLE_bts.c **** *   * CYBLE_GATT_ERR_INVALID_OFFSET - Offset value is invalid.
  60:.\Generated_Source\PSoC4/BLE_bts.c **** *   * CYBLE_GATT_ERR_REQUEST_NOT_SUPPORTED - The notification property of the
  61:.\Generated_Source\PSoC4/BLE_bts.c **** *                                            Bootloader Characteristic's Client
  62:.\Generated_Source\PSoC4/BLE_bts.c **** *                                            Configuration Characteristic
  63:.\Generated_Source\PSoC4/BLE_bts.c **** *                                            Descriptor is disabled.
  64:.\Generated_Source\PSoC4/BLE_bts.c **** ******************************************************************************/
  65:.\Generated_Source\PSoC4/BLE_bts.c **** CYBLE_GATT_ERR_CODE_T CyBle_BtsWriteEventHandler(CYBLE_GATTS_WRITE_REQ_PARAM_T *eventParam)
  66:.\Generated_Source\PSoC4/BLE_bts.c **** {
  48              		.loc 1 66 0
ARM GAS  C:\Users\zpstrwy\AppData\Local\Temp\ccc9zD51.s 			page 3


  49              		.cfi_startproc
  50 0000 90B5     		push	{r4, r7, lr}
  51              		.cfi_def_cfa_offset 12
  52              		.cfi_offset 4, -12
  53              		.cfi_offset 7, -8
  54              		.cfi_offset 14, -4
  55 0002 85B0     		sub	sp, sp, #20
  56              		.cfi_def_cfa_offset 32
  57 0004 00AF     		add	r7, sp, #0
  58              		.cfi_def_cfa_register 7
  59 0006 7860     		str	r0, [r7, #4]
  67:.\Generated_Source\PSoC4/BLE_bts.c ****     CYBLE_GATT_ERR_CODE_T gattErr = CYBLE_GATT_ERR_NONE;
  60              		.loc 1 67 0
  61 0008 0F23     		mov	r3, #15
  62 000a FB18     		add	r3, r7, r3
  63 000c 0022     		mov	r2, #0
  64 000e 1A70     		strb	r2, [r3]
  68:.\Generated_Source\PSoC4/BLE_bts.c ****     
  69:.\Generated_Source\PSoC4/BLE_bts.c ****     /* Client Characteristic Configuration descriptor Write Request */
  70:.\Generated_Source\PSoC4/BLE_bts.c ****     if(eventParam->handleValPair.attrHandle == cyBle_btss.btServiceInfo[0u].btServiceCharDescriptor
  65              		.loc 1 70 0
  66 0010 7B68     		ldr	r3, [r7, #4]
  67 0012 9B89     		ldrh	r3, [r3, #12]
  68 0014 1422     		mov	r2, #20
  69 0016 9342     		cmp	r3, r2
  70 0018 27D1     		bne	.L2
  71:.\Generated_Source\PSoC4/BLE_bts.c ****     {
  72:.\Generated_Source\PSoC4/BLE_bts.c ****         /* Verify that notification property is enabled for Bootloader Characteristic */
  73:.\Generated_Source\PSoC4/BLE_bts.c ****         if(CYBLE_IS_NOTIFICATION_SUPPORTED(cyBle_btss.btServiceInfo[0u].btServiceCharHandle))
  71              		.loc 1 73 0
  72 001a 1323     		mov	r3, #19
  73 001c 5A1E     		sub	r2, r3, #1
  74 001e 3449     		ldr	r1, .L7
  75 0020 131C     		mov	r3, r2
  76 0022 9B00     		lsl	r3, r3, #2
  77 0024 9B18     		add	r3, r3, r2
  78 0026 9B00     		lsl	r3, r3, #2
  79 0028 CB18     		add	r3, r1, r3
  80 002a 5A68     		ldr	r2, [r3, #4]
  81 002c 8023     		mov	r3, #128
  82 002e 5B01     		lsl	r3, r3, #5
  83 0030 1340     		and	r3, r2
  84 0032 0DD0     		beq	.L3
  74:.\Generated_Source\PSoC4/BLE_bts.c ****         {   
  75:.\Generated_Source\PSoC4/BLE_bts.c ****             gattErr = CyBle_GattsWriteAttributeValue(&eventParam->handleValPair, 0u, 
  85              		.loc 1 75 0
  86 0034 7B68     		ldr	r3, [r7, #4]
  87 0036 1A1D     		add	r2, r3, #4
  88 0038 7B68     		ldr	r3, [r7, #4]
  89 003a 0F21     		mov	r1, #15
  90 003c 7C18     		add	r4, r7, r1
  91 003e 101C     		mov	r0, r2
  92 0040 0021     		mov	r1, #0
  93 0042 1A1C     		mov	r2, r3
  94 0044 4023     		mov	r3, #64
  95 0046 FFF7FEFF 		bl	CyBle_GattsWriteAttributeValue
  96 004a 031C     		mov	r3, r0
ARM GAS  C:\Users\zpstrwy\AppData\Local\Temp\ccc9zD51.s 			page 4


  97 004c 2370     		strb	r3, [r4]
  98 004e 03E0     		b	.L4
  99              	.L3:
  76:.\Generated_Source\PSoC4/BLE_bts.c ****                 &eventParam->connHandle, CYBLE_GATT_DB_PEER_INITIATED);
  77:.\Generated_Source\PSoC4/BLE_bts.c ****         }
  78:.\Generated_Source\PSoC4/BLE_bts.c ****         else
  79:.\Generated_Source\PSoC4/BLE_bts.c ****         {
  80:.\Generated_Source\PSoC4/BLE_bts.c ****             gattErr = CYBLE_GATT_ERR_REQUEST_NOT_SUPPORTED;
 100              		.loc 1 80 0
 101 0050 0F23     		mov	r3, #15
 102 0052 FB18     		add	r3, r7, r3
 103 0054 0622     		mov	r2, #6
 104 0056 1A70     		strb	r2, [r3]
 105              	.L4:
  81:.\Generated_Source\PSoC4/BLE_bts.c ****         }
  82:.\Generated_Source\PSoC4/BLE_bts.c **** 
  83:.\Generated_Source\PSoC4/BLE_bts.c ****         /* Indicate that request was handled */
  84:.\Generated_Source\PSoC4/BLE_bts.c ****         cyBle_eventHandlerFlag &= (uint8)~CYBLE_CALLBACK;
 106              		.loc 1 84 0
 107 0058 264B     		ldr	r3, .L7+4
 108 005a 1B78     		ldrb	r3, [r3]
 109 005c DBB2     		uxtb	r3, r3
 110 005e 0122     		mov	r2, #1
 111 0060 9343     		bic	r3, r2
 112 0062 DAB2     		uxtb	r2, r3
 113 0064 234B     		ldr	r3, .L7+4
 114 0066 1A70     		strb	r2, [r3]
 115 0068 3BE0     		b	.L5
 116              	.L2:
  85:.\Generated_Source\PSoC4/BLE_bts.c ****     }
  86:.\Generated_Source\PSoC4/BLE_bts.c ****     else if(eventParam->handleValPair.attrHandle == cyBle_btss.btServiceInfo[0u].btServiceCharHandl
 117              		.loc 1 86 0
 118 006a 7B68     		ldr	r3, [r7, #4]
 119 006c 9B89     		ldrh	r3, [r3, #12]
 120 006e 1322     		mov	r2, #19
 121 0070 9342     		cmp	r3, r2
 122 0072 36D1     		bne	.L5
  87:.\Generated_Source\PSoC4/BLE_bts.c ****     {
  88:.\Generated_Source\PSoC4/BLE_bts.c ****         /* Write value to GATT database */
  89:.\Generated_Source\PSoC4/BLE_bts.c ****         gattErr = CyBle_GattsWriteAttributeValue(&eventParam->handleValPair, 0u, 
 123              		.loc 1 89 0
 124 0074 7B68     		ldr	r3, [r7, #4]
 125 0076 1A1D     		add	r2, r3, #4
 126 0078 7B68     		ldr	r3, [r7, #4]
 127 007a 0F21     		mov	r1, #15
 128 007c 7C18     		add	r4, r7, r1
 129 007e 101C     		mov	r0, r2
 130 0080 0021     		mov	r1, #0
 131 0082 1A1C     		mov	r2, r3
 132 0084 4023     		mov	r3, #64
 133 0086 FFF7FEFF 		bl	CyBle_GattsWriteAttributeValue
 134 008a 031C     		mov	r3, r0
 135 008c 2370     		strb	r3, [r4]
  90:.\Generated_Source\PSoC4/BLE_bts.c ****                 &eventParam->connHandle, CYBLE_GATT_DB_PEER_INITIATED);
  91:.\Generated_Source\PSoC4/BLE_bts.c ****         
  92:.\Generated_Source\PSoC4/BLE_bts.c ****         cyBle_btsBuffPtr = 
  93:.\Generated_Source\PSoC4/BLE_bts.c ****                 CYBLE_GATT_DB_ATTR_GET_ATTR_GEN_PTR(cyBle_btss.btServiceInfo[0u].btServiceCharHandl
ARM GAS  C:\Users\zpstrwy\AppData\Local\Temp\ccc9zD51.s 			page 5


 136              		.loc 1 93 0
 137 008e 1323     		mov	r3, #19
 138 0090 5A1E     		sub	r2, r3, #1
 139 0092 1749     		ldr	r1, .L7
 140 0094 131C     		mov	r3, r2
 141 0096 9B00     		lsl	r3, r3, #2
 142 0098 9B18     		add	r3, r3, r2
 143 009a 9B00     		lsl	r3, r3, #2
 144 009c CB18     		add	r3, r1, r3
 145 009e 0833     		add	r3, r3, #8
 146 00a0 9B68     		ldr	r3, [r3, #8]
 147 00a2 5A68     		ldr	r2, [r3, #4]
  92:.\Generated_Source\PSoC4/BLE_bts.c ****                 CYBLE_GATT_DB_ATTR_GET_ATTR_GEN_PTR(cyBle_btss.btServiceInfo[0u].btServiceCharHandl
 148              		.loc 1 92 0
 149 00a4 144B     		ldr	r3, .L7+8
 150 00a6 1A60     		str	r2, [r3]
  94:.\Generated_Source\PSoC4/BLE_bts.c **** 
  95:.\Generated_Source\PSoC4/BLE_bts.c ****         /* Extract length of command data and add control bytes to data 
  96:.\Generated_Source\PSoC4/BLE_bts.c ****         * length to get command length.
  97:.\Generated_Source\PSoC4/BLE_bts.c ****         */
  98:.\Generated_Source\PSoC4/BLE_bts.c ****         cyBle_cmdLength = (((uint16)(((uint16) cyBle_btsBuffPtr[CYBLE_BTS_COMMAND_DATA_LEN_OFFSET +
 151              		.loc 1 98 0
 152 00a8 134B     		ldr	r3, .L7+8
 153 00aa 1B68     		ldr	r3, [r3]
 154 00ac 0333     		add	r3, r3, #3
 155 00ae 1B78     		ldrb	r3, [r3]
 156 00b0 9BB2     		uxth	r3, r3
 157 00b2 1B02     		lsl	r3, r3, #8
 158 00b4 9AB2     		uxth	r2, r3
  99:.\Generated_Source\PSoC4/BLE_bts.c ****                             (uint16) cyBle_btsBuffPtr[CYBLE_BTS_COMMAND_DATA_LEN_OFFSET]) +
 159              		.loc 1 99 0
 160 00b6 104B     		ldr	r3, .L7+8
 161 00b8 1B68     		ldr	r3, [r3]
 162 00ba 0233     		add	r3, r3, #2
 163 00bc 1B78     		ldrb	r3, [r3]
  98:.\Generated_Source\PSoC4/BLE_bts.c ****                             (uint16) cyBle_btsBuffPtr[CYBLE_BTS_COMMAND_DATA_LEN_OFFSET]) +
 164              		.loc 1 98 0
 165 00be 9BB2     		uxth	r3, r3
 166 00c0 1343     		orr	r3, r2
 167 00c2 9BB2     		uxth	r3, r3
 168 00c4 0733     		add	r3, r3, #7
 169 00c6 9AB2     		uxth	r2, r3
 170 00c8 0C4B     		ldr	r3, .L7+12
 171 00ca 1A80     		strh	r2, [r3]
 100:.\Generated_Source\PSoC4/BLE_bts.c ****                                 CYBLE_BTS_COMMAND_CONTROL_BYTES_NUM;
 101:.\Generated_Source\PSoC4/BLE_bts.c **** 
 102:.\Generated_Source\PSoC4/BLE_bts.c ****         /* Set flag for bootloader to know that command is received from host */
 103:.\Generated_Source\PSoC4/BLE_bts.c ****         cyBle_cmdReceivedFlag = 1u;
 172              		.loc 1 103 0
 173 00cc 0C4B     		ldr	r3, .L7+16
 174 00ce 0122     		mov	r2, #1
 175 00d0 1A70     		strb	r2, [r3]
 104:.\Generated_Source\PSoC4/BLE_bts.c **** 
 105:.\Generated_Source\PSoC4/BLE_bts.c ****         /* Indicate that request was handled */
 106:.\Generated_Source\PSoC4/BLE_bts.c ****         cyBle_eventHandlerFlag &= (uint8)~CYBLE_CALLBACK;
 176              		.loc 1 106 0
 177 00d2 084B     		ldr	r3, .L7+4
ARM GAS  C:\Users\zpstrwy\AppData\Local\Temp\ccc9zD51.s 			page 6


 178 00d4 1B78     		ldrb	r3, [r3]
 179 00d6 DBB2     		uxtb	r3, r3
 180 00d8 0122     		mov	r2, #1
 181 00da 9343     		bic	r3, r2
 182 00dc DAB2     		uxtb	r2, r3
 183 00de 054B     		ldr	r3, .L7+4
 184 00e0 1A70     		strb	r2, [r3]
 185              	.L5:
 107:.\Generated_Source\PSoC4/BLE_bts.c ****     }
 108:.\Generated_Source\PSoC4/BLE_bts.c ****     else
 109:.\Generated_Source\PSoC4/BLE_bts.c ****     {
 110:.\Generated_Source\PSoC4/BLE_bts.c ****     }
 111:.\Generated_Source\PSoC4/BLE_bts.c ****     
 112:.\Generated_Source\PSoC4/BLE_bts.c ****     return(gattErr);
 186              		.loc 1 112 0
 187 00e2 0F23     		mov	r3, #15
 188 00e4 FB18     		add	r3, r7, r3
 189 00e6 1B78     		ldrb	r3, [r3]
 113:.\Generated_Source\PSoC4/BLE_bts.c **** }
 190              		.loc 1 113 0
 191 00e8 181C     		mov	r0, r3
 192 00ea BD46     		mov	sp, r7
 193 00ec 05B0     		add	sp, sp, #20
 194              		@ sp needed
 195 00ee 90BD     		pop	{r4, r7, pc}
 196              	.L8:
 197              		.align	2
 198              	.L7:
 199 00f0 00000000 		.word	cyBle_gattDB
 200 00f4 00000000 		.word	cyBle_eventHandlerFlag
 201 00f8 00000000 		.word	cyBle_btsBuffPtr
 202 00fc 00000000 		.word	cyBle_cmdLength
 203 0100 00000000 		.word	cyBle_cmdReceivedFlag
 204              		.cfi_endproc
 205              	.LFE2:
 206              		.size	CyBle_BtsWriteEventHandler, .-CyBle_BtsWriteEventHandler
 207              		.section	.text.CyBle_BtssPrepareWriteRequestEventHandler,"ax",%progbits
 208              		.align	2
 209              		.global	CyBle_BtssPrepareWriteRequestEventHandler
 210              		.code	16
 211              		.thumb_func
 212              		.type	CyBle_BtssPrepareWriteRequestEventHandler, %function
 213              	CyBle_BtssPrepareWriteRequestEventHandler:
 214              	.LFB3:
 114:.\Generated_Source\PSoC4/BLE_bts.c **** 
 115:.\Generated_Source\PSoC4/BLE_bts.c **** 
 116:.\Generated_Source\PSoC4/BLE_bts.c **** /****************************************************************************** 
 117:.\Generated_Source\PSoC4/BLE_bts.c **** * Function Name: CyBle_BtssPrepareWriteRequestEventHandler
 118:.\Generated_Source\PSoC4/BLE_bts.c **** ***************************************************************************//**
 119:.\Generated_Source\PSoC4/BLE_bts.c **** * 
 120:.\Generated_Source\PSoC4/BLE_bts.c **** *  Handles a Prepare Write Request event for the Bootloader Service.
 121:.\Generated_Source\PSoC4/BLE_bts.c **** * 
 122:.\Generated_Source\PSoC4/BLE_bts.c **** *  \param CYBLE_GATTS_PREP_WRITE_REQ_PARAM_T *eventParam: The pointer to the data
 123:.\Generated_Source\PSoC4/BLE_bts.c **** *                                                  received with a Prepare Write
 124:.\Generated_Source\PSoC4/BLE_bts.c **** *                                                  Request event for the
 125:.\Generated_Source\PSoC4/BLE_bts.c **** *                                                  Bootloader service.
 126:.\Generated_Source\PSoC4/BLE_bts.c **** * 
ARM GAS  C:\Users\zpstrwy\AppData\Local\Temp\ccc9zD51.s 			page 7


 127:.\Generated_Source\PSoC4/BLE_bts.c **** * \return
 128:.\Generated_Source\PSoC4/BLE_bts.c **** *  None.
 129:.\Generated_Source\PSoC4/BLE_bts.c **** * 
 130:.\Generated_Source\PSoC4/BLE_bts.c **** ******************************************************************************/
 131:.\Generated_Source\PSoC4/BLE_bts.c **** void CyBle_BtssPrepareWriteRequestEventHandler(const CYBLE_GATTS_PREP_WRITE_REQ_PARAM_T *eventParam
 132:.\Generated_Source\PSoC4/BLE_bts.c **** {
 215              		.loc 1 132 0
 216              		.cfi_startproc
 217 0000 80B5     		push	{r7, lr}
 218              		.cfi_def_cfa_offset 8
 219              		.cfi_offset 7, -8
 220              		.cfi_offset 14, -4
 221 0002 82B0     		sub	sp, sp, #8
 222              		.cfi_def_cfa_offset 16
 223 0004 00AF     		add	r7, sp, #0
 224              		.cfi_def_cfa_register 7
 225 0006 7860     		str	r0, [r7, #4]
 133:.\Generated_Source\PSoC4/BLE_bts.c ****     if(eventParam->baseAddr[0u].handleValuePair.attrHandle == cyBle_btss.btServiceInfo[0u].btServic
 226              		.loc 1 133 0
 227 0008 7B68     		ldr	r3, [r7, #4]
 228 000a 5B68     		ldr	r3, [r3, #4]
 229 000c 1B89     		ldrh	r3, [r3, #8]
 230 000e 1322     		mov	r2, #19
 231 0010 9342     		cmp	r3, r2
 232 0012 11D1     		bne	.L9
 134:.\Generated_Source\PSoC4/BLE_bts.c ****     {
 135:.\Generated_Source\PSoC4/BLE_bts.c ****         if(eventParam->currentPrepWriteReqCount == 1u)
 233              		.loc 1 135 0
 234 0014 7B68     		ldr	r3, [r7, #4]
 235 0016 1B7A     		ldrb	r3, [r3, #8]
 236 0018 012B     		cmp	r3, #1
 237 001a 05D1     		bne	.L11
 136:.\Generated_Source\PSoC4/BLE_bts.c ****         {
 137:.\Generated_Source\PSoC4/BLE_bts.c ****             /* Send Prepare Write Response which identifies acknowledgement for
 138:.\Generated_Source\PSoC4/BLE_bts.c ****             *  long characteristic value write.
 139:.\Generated_Source\PSoC4/BLE_bts.c ****             */
 140:.\Generated_Source\PSoC4/BLE_bts.c ****             CyBle_GattsPrepWriteReqSupport(CYBLE_GATTS_PREP_WRITE_SUPPORT);
 238              		.loc 1 140 0
 239 001c 0120     		mov	r0, #1
 240 001e FFF7FEFF 		bl	CyBle_GattsPrepWriteReqSupport
 141:.\Generated_Source\PSoC4/BLE_bts.c ****             
 142:.\Generated_Source\PSoC4/BLE_bts.c ****             cyBle_cmdLength = 0u;
 241              		.loc 1 142 0
 242 0022 074B     		ldr	r3, .L12
 243 0024 0022     		mov	r2, #0
 244 0026 1A80     		strh	r2, [r3]
 245              	.L11:
 143:.\Generated_Source\PSoC4/BLE_bts.c ****         }
 144:.\Generated_Source\PSoC4/BLE_bts.c **** 
 145:.\Generated_Source\PSoC4/BLE_bts.c ****         /* Indicate that request was handled */
 146:.\Generated_Source\PSoC4/BLE_bts.c ****         cyBle_eventHandlerFlag &= (uint8)~CYBLE_CALLBACK;
 246              		.loc 1 146 0
 247 0028 064B     		ldr	r3, .L12+4
 248 002a 1B78     		ldrb	r3, [r3]
 249 002c DBB2     		uxtb	r3, r3
 250 002e 0122     		mov	r2, #1
 251 0030 9343     		bic	r3, r2
ARM GAS  C:\Users\zpstrwy\AppData\Local\Temp\ccc9zD51.s 			page 8


 252 0032 DAB2     		uxtb	r2, r3
 253 0034 034B     		ldr	r3, .L12+4
 254 0036 1A70     		strb	r2, [r3]
 255              	.L9:
 147:.\Generated_Source\PSoC4/BLE_bts.c ****     }
 148:.\Generated_Source\PSoC4/BLE_bts.c **** }
 256              		.loc 1 148 0
 257 0038 BD46     		mov	sp, r7
 258 003a 02B0     		add	sp, sp, #8
 259              		@ sp needed
 260 003c 80BD     		pop	{r7, pc}
 261              	.L13:
 262 003e C046     		.align	2
 263              	.L12:
 264 0040 00000000 		.word	cyBle_cmdLength
 265 0044 00000000 		.word	cyBle_eventHandlerFlag
 266              		.cfi_endproc
 267              	.LFE3:
 268              		.size	CyBle_BtssPrepareWriteRequestEventHandler, .-CyBle_BtssPrepareWriteRequestEventHandler
 269              		.section	.text.CyBle_BtssExecuteWriteRequestEventHandler,"ax",%progbits
 270              		.align	2
 271              		.global	CyBle_BtssExecuteWriteRequestEventHandler
 272              		.code	16
 273              		.thumb_func
 274              		.type	CyBle_BtssExecuteWriteRequestEventHandler, %function
 275              	CyBle_BtssExecuteWriteRequestEventHandler:
 276              	.LFB4:
 149:.\Generated_Source\PSoC4/BLE_bts.c **** 
 150:.\Generated_Source\PSoC4/BLE_bts.c **** 
 151:.\Generated_Source\PSoC4/BLE_bts.c **** /****************************************************************************** 
 152:.\Generated_Source\PSoC4/BLE_bts.c **** * Function Name: CyBle_BtssExecuteWriteRequestEventHandler
 153:.\Generated_Source\PSoC4/BLE_bts.c **** ***************************************************************************//**
 154:.\Generated_Source\PSoC4/BLE_bts.c **** * 
 155:.\Generated_Source\PSoC4/BLE_bts.c **** *  Handles an Execute Write Request event for the Bootloader Service.
 156:.\Generated_Source\PSoC4/BLE_bts.c **** * 
 157:.\Generated_Source\PSoC4/BLE_bts.c **** *  \param CYBLE_GATTS_EXEC_WRITE_REQ_T *eventParam: The pointer to the data that came 
 158:.\Generated_Source\PSoC4/BLE_bts.c **** *                                            with a Write Request for the
 159:.\Generated_Source\PSoC4/BLE_bts.c **** *                                            Bootloader service.
 160:.\Generated_Source\PSoC4/BLE_bts.c **** * 
 161:.\Generated_Source\PSoC4/BLE_bts.c **** * \return
 162:.\Generated_Source\PSoC4/BLE_bts.c **** *  None.
 163:.\Generated_Source\PSoC4/BLE_bts.c **** * 
 164:.\Generated_Source\PSoC4/BLE_bts.c **** ******************************************************************************/
 165:.\Generated_Source\PSoC4/BLE_bts.c **** void CyBle_BtssExecuteWriteRequestEventHandler(CYBLE_GATTS_EXEC_WRITE_REQ_T *eventParam)
 166:.\Generated_Source\PSoC4/BLE_bts.c **** {
 277              		.loc 1 166 0
 278              		.cfi_startproc
 279 0000 80B5     		push	{r7, lr}
 280              		.cfi_def_cfa_offset 8
 281              		.cfi_offset 7, -8
 282              		.cfi_offset 14, -4
 283 0002 82B0     		sub	sp, sp, #8
 284              		.cfi_def_cfa_offset 16
 285 0004 00AF     		add	r7, sp, #0
 286              		.cfi_def_cfa_register 7
 287 0006 7860     		str	r0, [r7, #4]
 167:.\Generated_Source\PSoC4/BLE_bts.c ****     if(eventParam->baseAddr[0u].handleValuePair.attrHandle == cyBle_btss.btServiceInfo[0u].btServic
ARM GAS  C:\Users\zpstrwy\AppData\Local\Temp\ccc9zD51.s 			page 9


 288              		.loc 1 167 0
 289 0008 7B68     		ldr	r3, [r7, #4]
 290 000a 5B68     		ldr	r3, [r3, #4]
 291 000c 1B89     		ldrh	r3, [r3, #8]
 292 000e 1322     		mov	r2, #19
 293 0010 9342     		cmp	r3, r2
 294 0012 2FD1     		bne	.L14
 168:.\Generated_Source\PSoC4/BLE_bts.c ****     {        
 169:.\Generated_Source\PSoC4/BLE_bts.c ****         /* Check the execWriteFlag before execute or cancel write long operation */
 170:.\Generated_Source\PSoC4/BLE_bts.c ****         if(eventParam->execWriteFlag == CYBLE_GATT_EXECUTE_WRITE_EXEC_FLAG)
 295              		.loc 1 170 0
 296 0014 7B68     		ldr	r3, [r7, #4]
 297 0016 5B7A     		ldrb	r3, [r3, #9]
 298 0018 012B     		cmp	r3, #1
 299 001a 23D1     		bne	.L16
 171:.\Generated_Source\PSoC4/BLE_bts.c ****         {
 172:.\Generated_Source\PSoC4/BLE_bts.c ****             cyBle_btsBuffPtr = eventParam->baseAddr[0u].handleValuePair.value.val;
 300              		.loc 1 172 0
 301 001c 7B68     		ldr	r3, [r7, #4]
 302 001e 5B68     		ldr	r3, [r3, #4]
 303 0020 1A68     		ldr	r2, [r3]
 304 0022 164B     		ldr	r3, .L18
 305 0024 1A60     		str	r2, [r3]
 173:.\Generated_Source\PSoC4/BLE_bts.c ****             
 174:.\Generated_Source\PSoC4/BLE_bts.c ****             /* Extract length of command data and add control bytes to data 
 175:.\Generated_Source\PSoC4/BLE_bts.c ****             * length to get command length.
 176:.\Generated_Source\PSoC4/BLE_bts.c ****             */
 177:.\Generated_Source\PSoC4/BLE_bts.c ****             cyBle_cmdLength = (((uint16)(((uint16) cyBle_btsBuffPtr[CYBLE_BTS_COMMAND_DATA_LEN_OFFS
 306              		.loc 1 177 0
 307 0026 154B     		ldr	r3, .L18
 308 0028 1B68     		ldr	r3, [r3]
 309 002a 0333     		add	r3, r3, #3
 310 002c 1B78     		ldrb	r3, [r3]
 311 002e 9BB2     		uxth	r3, r3
 312 0030 1B02     		lsl	r3, r3, #8
 313 0032 9AB2     		uxth	r2, r3
 178:.\Generated_Source\PSoC4/BLE_bts.c ****                                 (uint16) cyBle_btsBuffPtr[CYBLE_BTS_COMMAND_DATA_LEN_OFFSET]) +
 314              		.loc 1 178 0
 315 0034 114B     		ldr	r3, .L18
 316 0036 1B68     		ldr	r3, [r3]
 317 0038 0233     		add	r3, r3, #2
 318 003a 1B78     		ldrb	r3, [r3]
 177:.\Generated_Source\PSoC4/BLE_bts.c ****                                 (uint16) cyBle_btsBuffPtr[CYBLE_BTS_COMMAND_DATA_LEN_OFFSET]) +
 319              		.loc 1 177 0
 320 003c 9BB2     		uxth	r3, r3
 321 003e 1343     		orr	r3, r2
 322 0040 9BB2     		uxth	r3, r3
 323 0042 0733     		add	r3, r3, #7
 324 0044 9AB2     		uxth	r2, r3
 325 0046 0E4B     		ldr	r3, .L18+4
 326 0048 1A80     		strh	r2, [r3]
 179:.\Generated_Source\PSoC4/BLE_bts.c ****                                 CYBLE_BTS_COMMAND_CONTROL_BYTES_NUM;
 180:.\Generated_Source\PSoC4/BLE_bts.c ****             
 181:.\Generated_Source\PSoC4/BLE_bts.c ****             if(cyBle_cmdLength > CYBLE_BTS_COMMAND_MAX_LENGTH)
 327              		.loc 1 181 0
 328 004a 0D4B     		ldr	r3, .L18+4
 329 004c 1A88     		ldrh	r2, [r3]
ARM GAS  C:\Users\zpstrwy\AppData\Local\Temp\ccc9zD51.s 			page 10


 330 004e 0823     		mov	r3, #8
 331 0050 FF33     		add	r3, r3, #255
 332 0052 9A42     		cmp	r2, r3
 333 0054 03D9     		bls	.L17
 182:.\Generated_Source\PSoC4/BLE_bts.c ****             {
 183:.\Generated_Source\PSoC4/BLE_bts.c ****                 cyBle_cmdLength = CYBLE_BTS_COMMAND_MAX_LENGTH;
 334              		.loc 1 183 0
 335 0056 0A4B     		ldr	r3, .L18+4
 336 0058 0822     		mov	r2, #8
 337 005a FF32     		add	r2, r2, #255
 338 005c 1A80     		strh	r2, [r3]
 339              	.L17:
 184:.\Generated_Source\PSoC4/BLE_bts.c ****             }
 185:.\Generated_Source\PSoC4/BLE_bts.c **** 
 186:.\Generated_Source\PSoC4/BLE_bts.c ****             /* Set flag for bootloader to know that command is received from host */
 187:.\Generated_Source\PSoC4/BLE_bts.c ****             cyBle_cmdReceivedFlag = 1u;
 340              		.loc 1 187 0
 341 005e 094B     		ldr	r3, .L18+8
 342 0060 0122     		mov	r2, #1
 343 0062 1A70     		strb	r2, [r3]
 344              	.L16:
 188:.\Generated_Source\PSoC4/BLE_bts.c ****         }
 189:.\Generated_Source\PSoC4/BLE_bts.c **** 
 190:.\Generated_Source\PSoC4/BLE_bts.c ****         /* Indicate that request was handled */
 191:.\Generated_Source\PSoC4/BLE_bts.c ****         cyBle_eventHandlerFlag &= (uint8)~CYBLE_CALLBACK;
 345              		.loc 1 191 0
 346 0064 084B     		ldr	r3, .L18+12
 347 0066 1B78     		ldrb	r3, [r3]
 348 0068 DBB2     		uxtb	r3, r3
 349 006a 0122     		mov	r2, #1
 350 006c 9343     		bic	r3, r2
 351 006e DAB2     		uxtb	r2, r3
 352 0070 054B     		ldr	r3, .L18+12
 353 0072 1A70     		strb	r2, [r3]
 354              	.L14:
 192:.\Generated_Source\PSoC4/BLE_bts.c ****     }
 193:.\Generated_Source\PSoC4/BLE_bts.c **** }
 355              		.loc 1 193 0
 356 0074 BD46     		mov	sp, r7
 357 0076 02B0     		add	sp, sp, #8
 358              		@ sp needed
 359 0078 80BD     		pop	{r7, pc}
 360              	.L19:
 361 007a C046     		.align	2
 362              	.L18:
 363 007c 00000000 		.word	cyBle_btsBuffPtr
 364 0080 00000000 		.word	cyBle_cmdLength
 365 0084 00000000 		.word	cyBle_cmdReceivedFlag
 366 0088 00000000 		.word	cyBle_eventHandlerFlag
 367              		.cfi_endproc
 368              	.LFE4:
 369              		.size	CyBle_BtssExecuteWriteRequestEventHandler, .-CyBle_BtssExecuteWriteRequestEventHandler
 370              		.section	.text.CyBLE_CyBtldrCommStart,"ax",%progbits
 371              		.align	2
 372              		.global	CyBLE_CyBtldrCommStart
 373              		.code	16
 374              		.thumb_func
ARM GAS  C:\Users\zpstrwy\AppData\Local\Temp\ccc9zD51.s 			page 11


 375              		.type	CyBLE_CyBtldrCommStart, %function
 376              	CyBLE_CyBtldrCommStart:
 377              	.LFB5:
 194:.\Generated_Source\PSoC4/BLE_bts.c **** 
 195:.\Generated_Source\PSoC4/BLE_bts.c **** 
 196:.\Generated_Source\PSoC4/BLE_bts.c **** /******************************************************************************
 197:.\Generated_Source\PSoC4/BLE_bts.c **** * Function Name: CyBtldrCommStart
 198:.\Generated_Source\PSoC4/BLE_bts.c **** ***************************************************************************//**
 199:.\Generated_Source\PSoC4/BLE_bts.c **** * 
 200:.\Generated_Source\PSoC4/BLE_bts.c **** *  This function does nothing but it is required for code consistency.
 201:.\Generated_Source\PSoC4/BLE_bts.c **** * 
 202:.\Generated_Source\PSoC4/BLE_bts.c **** *  None.
 203:.\Generated_Source\PSoC4/BLE_bts.c **** * 
 204:.\Generated_Source\PSoC4/BLE_bts.c **** * \return
 205:.\Generated_Source\PSoC4/BLE_bts.c **** *  None.
 206:.\Generated_Source\PSoC4/BLE_bts.c **** * 
 207:.\Generated_Source\PSoC4/BLE_bts.c **** ******************************************************************************/
 208:.\Generated_Source\PSoC4/BLE_bts.c **** void CyBLE_CyBtldrCommStart(void)
 209:.\Generated_Source\PSoC4/BLE_bts.c **** {
 378              		.loc 1 209 0
 379              		.cfi_startproc
 380 0000 80B5     		push	{r7, lr}
 381              		.cfi_def_cfa_offset 8
 382              		.cfi_offset 7, -8
 383              		.cfi_offset 14, -4
 384 0002 00AF     		add	r7, sp, #0
 385              		.cfi_def_cfa_register 7
 210:.\Generated_Source\PSoC4/BLE_bts.c **** }
 386              		.loc 1 210 0
 387 0004 BD46     		mov	sp, r7
 388              		@ sp needed
 389 0006 80BD     		pop	{r7, pc}
 390              		.cfi_endproc
 391              	.LFE5:
 392              		.size	CyBLE_CyBtldrCommStart, .-CyBLE_CyBtldrCommStart
 393              		.section	.text.CyBLE_CyBtldrCommStop,"ax",%progbits
 394              		.align	2
 395              		.global	CyBLE_CyBtldrCommStop
 396              		.code	16
 397              		.thumb_func
 398              		.type	CyBLE_CyBtldrCommStop, %function
 399              	CyBLE_CyBtldrCommStop:
 400              	.LFB6:
 211:.\Generated_Source\PSoC4/BLE_bts.c **** 
 212:.\Generated_Source\PSoC4/BLE_bts.c **** 
 213:.\Generated_Source\PSoC4/BLE_bts.c **** /******************************************************************************
 214:.\Generated_Source\PSoC4/BLE_bts.c **** * Function Name: CyBtldrCommStop
 215:.\Generated_Source\PSoC4/BLE_bts.c **** ***************************************************************************//**
 216:.\Generated_Source\PSoC4/BLE_bts.c **** * 
 217:.\Generated_Source\PSoC4/BLE_bts.c **** *  This function disconnects from the peer device and stops BLE component.
 218:.\Generated_Source\PSoC4/BLE_bts.c **** * 
 219:.\Generated_Source\PSoC4/BLE_bts.c **** *  None.
 220:.\Generated_Source\PSoC4/BLE_bts.c **** * 
 221:.\Generated_Source\PSoC4/BLE_bts.c **** * \return
 222:.\Generated_Source\PSoC4/BLE_bts.c **** *  None.
 223:.\Generated_Source\PSoC4/BLE_bts.c **** * 
 224:.\Generated_Source\PSoC4/BLE_bts.c **** ******************************************************************************/
ARM GAS  C:\Users\zpstrwy\AppData\Local\Temp\ccc9zD51.s 			page 12


 225:.\Generated_Source\PSoC4/BLE_bts.c **** void CyBLE_CyBtldrCommStop(void)
 226:.\Generated_Source\PSoC4/BLE_bts.c **** {
 401              		.loc 1 226 0
 402              		.cfi_startproc
 403 0000 80B5     		push	{r7, lr}
 404              		.cfi_def_cfa_offset 8
 405              		.cfi_offset 7, -8
 406              		.cfi_offset 14, -4
 407 0002 00AF     		add	r7, sp, #0
 408              		.cfi_def_cfa_register 7
 227:.\Generated_Source\PSoC4/BLE_bts.c ****     /* Initiate disconnection from the peer device*/
 228:.\Generated_Source\PSoC4/BLE_bts.c ****     if(CyBle_GapDisconnect(cyBle_connHandle.bdHandle) == CYBLE_ERROR_OK)
 409              		.loc 1 228 0
 410 0004 084B     		ldr	r3, .L25
 411 0006 1B78     		ldrb	r3, [r3]
 412 0008 181C     		mov	r0, r3
 413 000a FFF7FEFF 		bl	CyBle_GapDisconnect
 414 000e 031E     		sub	r3, r0, #0
 415 0010 06D1     		bne	.L22
 229:.\Generated_Source\PSoC4/BLE_bts.c ****     {
 230:.\Generated_Source\PSoC4/BLE_bts.c ****         /* Wait for disconnection event */
 231:.\Generated_Source\PSoC4/BLE_bts.c ****         while(CyBle_GetState() == CYBLE_STATE_CONNECTED)
 416              		.loc 1 231 0
 417 0012 01E0     		b	.L23
 418              	.L24:
 232:.\Generated_Source\PSoC4/BLE_bts.c ****         {
 233:.\Generated_Source\PSoC4/BLE_bts.c ****             /* Process BLE events */
 234:.\Generated_Source\PSoC4/BLE_bts.c ****             CyBle_ProcessEvents();
 419              		.loc 1 234 0
 420 0014 FFF7FEFF 		bl	CyBle_ProcessEvents
 421              	.L23:
 231:.\Generated_Source\PSoC4/BLE_bts.c ****         {
 422              		.loc 1 231 0
 423 0018 044B     		ldr	r3, .L25+4
 424 001a 1B78     		ldrb	r3, [r3]
 425 001c 022B     		cmp	r3, #2
 426 001e F9D0     		beq	.L24
 427              	.L22:
 235:.\Generated_Source\PSoC4/BLE_bts.c ****         }
 236:.\Generated_Source\PSoC4/BLE_bts.c ****     }
 237:.\Generated_Source\PSoC4/BLE_bts.c ****     /* Stop BLE component */
 238:.\Generated_Source\PSoC4/BLE_bts.c ****     CyBle_Stop();
 428              		.loc 1 238 0
 429 0020 FFF7FEFF 		bl	CyBle_Stop
 239:.\Generated_Source\PSoC4/BLE_bts.c **** }
 430              		.loc 1 239 0
 431 0024 BD46     		mov	sp, r7
 432              		@ sp needed
 433 0026 80BD     		pop	{r7, pc}
 434              	.L26:
 435              		.align	2
 436              	.L25:
 437 0028 00000000 		.word	cyBle_connHandle
 438 002c 00000000 		.word	cyBle_state
 439              		.cfi_endproc
 440              	.LFE6:
 441              		.size	CyBLE_CyBtldrCommStop, .-CyBLE_CyBtldrCommStop
ARM GAS  C:\Users\zpstrwy\AppData\Local\Temp\ccc9zD51.s 			page 13


 442              		.section	.text.CyBLE_CyBtldrCommReset,"ax",%progbits
 443              		.align	2
 444              		.global	CyBLE_CyBtldrCommReset
 445              		.code	16
 446              		.thumb_func
 447              		.type	CyBLE_CyBtldrCommReset, %function
 448              	CyBLE_CyBtldrCommReset:
 449              	.LFB7:
 240:.\Generated_Source\PSoC4/BLE_bts.c **** 
 241:.\Generated_Source\PSoC4/BLE_bts.c **** 
 242:.\Generated_Source\PSoC4/BLE_bts.c **** /******************************************************************************
 243:.\Generated_Source\PSoC4/BLE_bts.c **** * Function Name: CyBtldrCommReset
 244:.\Generated_Source\PSoC4/BLE_bts.c **** ***************************************************************************//**
 245:.\Generated_Source\PSoC4/BLE_bts.c **** * 
 246:.\Generated_Source\PSoC4/BLE_bts.c **** *  This function does nothing but it is required for code consistency.
 247:.\Generated_Source\PSoC4/BLE_bts.c **** * 
 248:.\Generated_Source\PSoC4/BLE_bts.c **** *  None.
 249:.\Generated_Source\PSoC4/BLE_bts.c **** * 
 250:.\Generated_Source\PSoC4/BLE_bts.c **** * \return
 251:.\Generated_Source\PSoC4/BLE_bts.c **** *  None.
 252:.\Generated_Source\PSoC4/BLE_bts.c **** * 
 253:.\Generated_Source\PSoC4/BLE_bts.c **** ******************************************************************************/
 254:.\Generated_Source\PSoC4/BLE_bts.c **** void CyBLE_CyBtldrCommReset(void)
 255:.\Generated_Source\PSoC4/BLE_bts.c **** {
 450              		.loc 1 255 0
 451              		.cfi_startproc
 452 0000 80B5     		push	{r7, lr}
 453              		.cfi_def_cfa_offset 8
 454              		.cfi_offset 7, -8
 455              		.cfi_offset 14, -4
 456 0002 00AF     		add	r7, sp, #0
 457              		.cfi_def_cfa_register 7
 256:.\Generated_Source\PSoC4/BLE_bts.c **** }
 458              		.loc 1 256 0
 459 0004 BD46     		mov	sp, r7
 460              		@ sp needed
 461 0006 80BD     		pop	{r7, pc}
 462              		.cfi_endproc
 463              	.LFE7:
 464              		.size	CyBLE_CyBtldrCommReset, .-CyBLE_CyBtldrCommReset
 465              		.section	.text.CyBLE_CyBtldrCommWrite,"ax",%progbits
 466              		.align	2
 467              		.global	CyBLE_CyBtldrCommWrite
 468              		.code	16
 469              		.thumb_func
 470              		.type	CyBLE_CyBtldrCommWrite, %function
 471              	CyBLE_CyBtldrCommWrite:
 472              	.LFB8:
 257:.\Generated_Source\PSoC4/BLE_bts.c **** 
 258:.\Generated_Source\PSoC4/BLE_bts.c **** 
 259:.\Generated_Source\PSoC4/BLE_bts.c **** /******************************************************************************
 260:.\Generated_Source\PSoC4/BLE_bts.c **** * Function Name: CyBtldrCommWrite
 261:.\Generated_Source\PSoC4/BLE_bts.c **** ***************************************************************************//**
 262:.\Generated_Source\PSoC4/BLE_bts.c **** * 
 263:.\Generated_Source\PSoC4/BLE_bts.c **** *  Requests that the provided size (number of bytes) should be written from the
 264:.\Generated_Source\PSoC4/BLE_bts.c **** *  input data buffer to the host device. This function in turn invokes the
 265:.\Generated_Source\PSoC4/BLE_bts.c **** *  CyBle_GattsNotification() API to sent the data. If a notification is
ARM GAS  C:\Users\zpstrwy\AppData\Local\Temp\ccc9zD51.s 			page 14


 266:.\Generated_Source\PSoC4/BLE_bts.c **** *  accepted, the function returns CYRET_SUCCESS. The timeOut parameter is ignored
 267:.\Generated_Source\PSoC4/BLE_bts.c **** *  in this case.
 268:.\Generated_Source\PSoC4/BLE_bts.c **** * 
 269:.\Generated_Source\PSoC4/BLE_bts.c **** *  \param data: The pointer to the buffer containing data to be written.
 270:.\Generated_Source\PSoC4/BLE_bts.c **** *  \param size: The number of bytes from the data buffer to write.
 271:.\Generated_Source\PSoC4/BLE_bts.c **** *  \param count: The pointer to where the BLE component will write the number 
 272:.\Generated_Source\PSoC4/BLE_bts.c **** *         of written bytes, generally the same as the size.
 273:.\Generated_Source\PSoC4/BLE_bts.c **** *  \param timeOut: Ignored. Used for consistency.
 274:.\Generated_Source\PSoC4/BLE_bts.c **** * 
 275:.\Generated_Source\PSoC4/BLE_bts.c **** * \return
 276:.\Generated_Source\PSoC4/BLE_bts.c **** *  The return value is of type cystatus:
 277:.\Generated_Source\PSoC4/BLE_bts.c **** *     * CYRET_SUCCESS - Indicates if a notification is successful.
 278:.\Generated_Source\PSoC4/BLE_bts.c **** *     * CYRET_LOCKED - Notifications are disabled.
 279:.\Generated_Source\PSoC4/BLE_bts.c **** *     * CYRET_UNKNOWN - Failed to send notification to the host.
 280:.\Generated_Source\PSoC4/BLE_bts.c **** * 
 281:.\Generated_Source\PSoC4/BLE_bts.c **** ******************************************************************************/
 282:.\Generated_Source\PSoC4/BLE_bts.c **** cystatus CyBLE_CyBtldrCommWrite(const uint8 data[], uint16 size, uint16 *count, uint8 timeOut)
 283:.\Generated_Source\PSoC4/BLE_bts.c **** {
 473              		.loc 1 283 0
 474              		.cfi_startproc
 475 0000 80B5     		push	{r7, lr}
 476              		.cfi_def_cfa_offset 8
 477              		.cfi_offset 7, -8
 478              		.cfi_offset 14, -4
 479 0002 8AB0     		sub	sp, sp, #40
 480              		.cfi_def_cfa_offset 48
 481 0004 00AF     		add	r7, sp, #0
 482              		.cfi_def_cfa_register 7
 483 0006 F860     		str	r0, [r7, #12]
 484 0008 081C     		mov	r0, r1
 485 000a 7A60     		str	r2, [r7, #4]
 486 000c 191C     		mov	r1, r3
 487 000e 0A23     		mov	r3, #10
 488 0010 FB18     		add	r3, r7, r3
 489 0012 021C     		add	r2, r0, #0
 490 0014 1A80     		strh	r2, [r3]
 491 0016 0923     		mov	r3, #9
 492 0018 FB18     		add	r3, r7, r3
 493 001a 0A1C     		add	r2, r1, #0
 494 001c 1A70     		strb	r2, [r3]
 284:.\Generated_Source\PSoC4/BLE_bts.c ****     cystatus locStatus = CYRET_LOCKED;
 495              		.loc 1 284 0
 496 001e 0423     		mov	r3, #4
 497 0020 7B62     		str	r3, [r7, #36]
 285:.\Generated_Source\PSoC4/BLE_bts.c ****     uint8 *btCmdCharacteristicPtr;
 286:.\Generated_Source\PSoC4/BLE_bts.c ****     CYBLE_GATTS_HANDLE_VALUE_NTF_T ntfParam;
 287:.\Generated_Source\PSoC4/BLE_bts.c **** 
 288:.\Generated_Source\PSoC4/BLE_bts.c ****     if(CYBLE_IS_NOTIFICATION_ENABLED(cyBle_btss.btServiceInfo[0u].btServiceCharDescriptors[0u]))
 498              		.loc 1 288 0
 499 0022 1423     		mov	r3, #20
 500 0024 5A1E     		sub	r2, r3, #1
 501 0026 2E49     		ldr	r1, .L33
 502 0028 131C     		mov	r3, r2
 503 002a 9B00     		lsl	r3, r3, #2
 504 002c 9B18     		add	r3, r3, r2
 505 002e 9B00     		lsl	r3, r3, #2
 506 0030 CB18     		add	r3, r1, r3
ARM GAS  C:\Users\zpstrwy\AppData\Local\Temp\ccc9zD51.s 			page 15


 507 0032 0833     		add	r3, r3, #8
 508 0034 9B68     		ldr	r3, [r3, #8]
 509 0036 5B68     		ldr	r3, [r3, #4]
 510 0038 181C     		mov	r0, r3
 511 003a FFF7FEFF 		bl	CyBle_Get16ByPtr
 512 003e 031C     		mov	r3, r0
 513 0040 1A1C     		mov	r2, r3
 514 0042 0123     		mov	r3, #1
 515 0044 1340     		and	r3, r2
 516 0046 9BB2     		uxth	r3, r3
 517 0048 002B     		cmp	r3, #0
 518 004a 43D0     		beq	.L32
 289:.\Generated_Source\PSoC4/BLE_bts.c ****     {
 290:.\Generated_Source\PSoC4/BLE_bts.c ****         /* Get pointer to Bootloader Characteristic value to store response there */
 291:.\Generated_Source\PSoC4/BLE_bts.c ****         btCmdCharacteristicPtr =
 292:.\Generated_Source\PSoC4/BLE_bts.c ****             CYBLE_GATT_DB_ATTR_GET_ATTR_GEN_PTR(cyBle_btss.btServiceInfo[0u].btServiceCharHandle);
 519              		.loc 1 292 0
 520 004c 1323     		mov	r3, #19
 521 004e 5A1E     		sub	r2, r3, #1
 522 0050 2349     		ldr	r1, .L33
 523 0052 131C     		mov	r3, r2
 524 0054 9B00     		lsl	r3, r3, #2
 525 0056 9B18     		add	r3, r3, r2
 526 0058 9B00     		lsl	r3, r3, #2
 527 005a CB18     		add	r3, r1, r3
 528 005c 0833     		add	r3, r3, #8
 529 005e 9B68     		ldr	r3, [r3, #8]
 291:.\Generated_Source\PSoC4/BLE_bts.c ****             CYBLE_GATT_DB_ATTR_GET_ATTR_GEN_PTR(cyBle_btss.btServiceInfo[0u].btServiceCharHandle);
 530              		.loc 1 291 0
 531 0060 5B68     		ldr	r3, [r3, #4]
 532 0062 3B62     		str	r3, [r7, #32]
 293:.\Generated_Source\PSoC4/BLE_bts.c ****         
 294:.\Generated_Source\PSoC4/BLE_bts.c ****         /* Prepare and send notification with the bootloader packet emulator
 295:.\Generated_Source\PSoC4/BLE_bts.c ****         * response if notifications are enabled.
 296:.\Generated_Source\PSoC4/BLE_bts.c ****         */
 297:.\Generated_Source\PSoC4/BLE_bts.c ****         (void)memcpy((void *)btCmdCharacteristicPtr, (const void *)data, size);
 533              		.loc 1 297 0
 534 0064 0A23     		mov	r3, #10
 535 0066 FB18     		add	r3, r7, r3
 536 0068 1B88     		ldrh	r3, [r3]
 537 006a 396A     		ldr	r1, [r7, #32]
 538 006c FA68     		ldr	r2, [r7, #12]
 539 006e 081C     		mov	r0, r1
 540 0070 111C     		mov	r1, r2
 541 0072 1A1C     		mov	r2, r3
 542 0074 FFF7FEFF 		bl	memcpy
 298:.\Generated_Source\PSoC4/BLE_bts.c **** 
 299:.\Generated_Source\PSoC4/BLE_bts.c ****         /* Fill notification parameters structure to be send with  
 300:.\Generated_Source\PSoC4/BLE_bts.c ****         * CyBle_GattsNotification().
 301:.\Generated_Source\PSoC4/BLE_bts.c ****         */
 302:.\Generated_Source\PSoC4/BLE_bts.c ****         ntfParam.value.len = size;
 543              		.loc 1 302 0
 544 0078 1423     		mov	r3, #20
 545 007a FB18     		add	r3, r7, r3
 546 007c 0A22     		mov	r2, #10
 547 007e BA18     		add	r2, r7, r2
 548 0080 1288     		ldrh	r2, [r2]
ARM GAS  C:\Users\zpstrwy\AppData\Local\Temp\ccc9zD51.s 			page 16


 549 0082 9A80     		strh	r2, [r3, #4]
 303:.\Generated_Source\PSoC4/BLE_bts.c ****         ntfParam.value.val = btCmdCharacteristicPtr;
 550              		.loc 1 303 0
 551 0084 1423     		mov	r3, #20
 552 0086 FB18     		add	r3, r7, r3
 553 0088 3A6A     		ldr	r2, [r7, #32]
 554 008a 1A60     		str	r2, [r3]
 304:.\Generated_Source\PSoC4/BLE_bts.c ****         ntfParam.attrHandle = cyBle_btss.btServiceInfo[0u].btServiceCharHandle;
 555              		.loc 1 304 0
 556 008c 1322     		mov	r2, #19
 557 008e 1423     		mov	r3, #20
 558 0090 FB18     		add	r3, r7, r3
 559 0092 1A81     		strh	r2, [r3, #8]
 305:.\Generated_Source\PSoC4/BLE_bts.c ****         
 306:.\Generated_Source\PSoC4/BLE_bts.c ****         if(CyBle_GattsNotification(cyBle_connHandle, &ntfParam) == CYBLE_ERROR_OK)
 560              		.loc 1 306 0
 561 0094 134B     		ldr	r3, .L33+4
 562 0096 1422     		mov	r2, #20
 563 0098 B918     		add	r1, r7, r2
 564 009a 1A78     		ldrb	r2, [r3]
 565 009c 5B78     		ldrb	r3, [r3, #1]
 566 009e 1B02     		lsl	r3, r3, #8
 567 00a0 1A43     		orr	r2, r3
 568 00a2 0023     		mov	r3, #0
 569 00a4 1204     		lsl	r2, r2, #16
 570 00a6 120C     		lsr	r2, r2, #16
 571 00a8 1B0C     		lsr	r3, r3, #16
 572 00aa 1B04     		lsl	r3, r3, #16
 573 00ac 1343     		orr	r3, r2
 574 00ae 181C     		mov	r0, r3
 575 00b0 FFF7FEFF 		bl	CyBle_GattsNotification
 576 00b4 031E     		sub	r3, r0, #0
 577 00b6 07D1     		bne	.L30
 307:.\Generated_Source\PSoC4/BLE_bts.c ****         {
 308:.\Generated_Source\PSoC4/BLE_bts.c ****             *count = size;
 578              		.loc 1 308 0
 579 00b8 7B68     		ldr	r3, [r7, #4]
 580 00ba 0A22     		mov	r2, #10
 581 00bc BA18     		add	r2, r7, r2
 582 00be 1288     		ldrh	r2, [r2]
 583 00c0 1A80     		strh	r2, [r3]
 309:.\Generated_Source\PSoC4/BLE_bts.c ****             locStatus = CYRET_SUCCESS;
 584              		.loc 1 309 0
 585 00c2 0023     		mov	r3, #0
 586 00c4 7B62     		str	r3, [r7, #36]
 587 00c6 05E0     		b	.L32
 588              	.L30:
 310:.\Generated_Source\PSoC4/BLE_bts.c ****         }
 311:.\Generated_Source\PSoC4/BLE_bts.c ****         else
 312:.\Generated_Source\PSoC4/BLE_bts.c ****         {
 313:.\Generated_Source\PSoC4/BLE_bts.c ****             *count = 0u;
 589              		.loc 1 313 0
 590 00c8 7B68     		ldr	r3, [r7, #4]
 591 00ca 0022     		mov	r2, #0
 592 00cc 1A80     		strh	r2, [r3]
 314:.\Generated_Source\PSoC4/BLE_bts.c ****             locStatus = CYRET_UNKNOWN;
 593              		.loc 1 314 0
ARM GAS  C:\Users\zpstrwy\AppData\Local\Temp\ccc9zD51.s 			page 17


 594 00ce 0123     		mov	r3, #1
 595 00d0 5B42     		neg	r3, r3
 596 00d2 7B62     		str	r3, [r7, #36]
 597              	.L32:
 315:.\Generated_Source\PSoC4/BLE_bts.c ****         }
 316:.\Generated_Source\PSoC4/BLE_bts.c ****     }
 317:.\Generated_Source\PSoC4/BLE_bts.c **** 
 318:.\Generated_Source\PSoC4/BLE_bts.c ****     /* Unreferenced variable warning workaround */
 319:.\Generated_Source\PSoC4/BLE_bts.c ****     if(timeOut != 0u)
 320:.\Generated_Source\PSoC4/BLE_bts.c ****     {
 321:.\Generated_Source\PSoC4/BLE_bts.c ****     }
 322:.\Generated_Source\PSoC4/BLE_bts.c ****     
 323:.\Generated_Source\PSoC4/BLE_bts.c ****     return(locStatus);
 598              		.loc 1 323 0
 599 00d4 7B6A     		ldr	r3, [r7, #36]
 324:.\Generated_Source\PSoC4/BLE_bts.c **** }
 600              		.loc 1 324 0
 601 00d6 181C     		mov	r0, r3
 602 00d8 BD46     		mov	sp, r7
 603 00da 0AB0     		add	sp, sp, #40
 604              		@ sp needed
 605 00dc 80BD     		pop	{r7, pc}
 606              	.L34:
 607 00de C046     		.align	2
 608              	.L33:
 609 00e0 00000000 		.word	cyBle_gattDB
 610 00e4 00000000 		.word	cyBle_connHandle
 611              		.cfi_endproc
 612              	.LFE8:
 613              		.size	CyBLE_CyBtldrCommWrite, .-CyBLE_CyBtldrCommWrite
 614              		.section	.text.CyBLE_CyBtldrCommRead,"ax",%progbits
 615              		.align	2
 616              		.global	CyBLE_CyBtldrCommRead
 617              		.code	16
 618              		.thumb_func
 619              		.type	CyBLE_CyBtldrCommRead, %function
 620              	CyBLE_CyBtldrCommRead:
 621              	.LFB9:
 325:.\Generated_Source\PSoC4/BLE_bts.c **** 
 326:.\Generated_Source\PSoC4/BLE_bts.c **** 
 327:.\Generated_Source\PSoC4/BLE_bts.c **** /******************************************************************************
 328:.\Generated_Source\PSoC4/BLE_bts.c **** * Function Name: CyBtldrCommRead
 329:.\Generated_Source\PSoC4/BLE_bts.c **** ***************************************************************************//**
 330:.\Generated_Source\PSoC4/BLE_bts.c **** * 
 331:.\Generated_Source\PSoC4/BLE_bts.c **** *  Requests that the provided size (number of bytes) is read from the host device
 332:.\Generated_Source\PSoC4/BLE_bts.c **** *  and stored in the provided data buffer. Once the read is done, the "count" is
 333:.\Generated_Source\PSoC4/BLE_bts.c **** *  endorsed with the number of bytes written. The timeOut parameter is used to
 334:.\Generated_Source\PSoC4/BLE_bts.c **** *  provide an upper bound on the time that the function is allowed to operate. If
 335:.\Generated_Source\PSoC4/BLE_bts.c **** *  the read completes early, it should return success code as soon as possible.
 336:.\Generated_Source\PSoC4/BLE_bts.c **** *  If the read was not successful before the allocated time has expired, it
 337:.\Generated_Source\PSoC4/BLE_bts.c **** *  should return an error.
 338:.\Generated_Source\PSoC4/BLE_bts.c **** * 
 339:.\Generated_Source\PSoC4/BLE_bts.c **** *  \param uint8 *data: The pointer to the buffer to store data from the host controller.
 340:.\Generated_Source\PSoC4/BLE_bts.c **** *  \param uint16 size: The number of bytes to read into the data buffer.
 341:.\Generated_Source\PSoC4/BLE_bts.c **** *  \param uint16 *count: The pointer to where the BLE component will write the count of the
 342:.\Generated_Source\PSoC4/BLE_bts.c **** *                 number of read bytes.
 343:.\Generated_Source\PSoC4/BLE_bts.c **** *  \param uint8 timeOut: The amount of time (in units of 10 milliseconds) for which the
ARM GAS  C:\Users\zpstrwy\AppData\Local\Temp\ccc9zD51.s 			page 18


 344:.\Generated_Source\PSoC4/BLE_bts.c **** *                 BLE component should wait before indicating communications
 345:.\Generated_Source\PSoC4/BLE_bts.c **** *                 timed out.
 346:.\Generated_Source\PSoC4/BLE_bts.c **** * 
 347:.\Generated_Source\PSoC4/BLE_bts.c **** * \return
 348:.\Generated_Source\PSoC4/BLE_bts.c **** *  The return value is of type cystatus:
 349:.\Generated_Source\PSoC4/BLE_bts.c **** *     * CYRET_SUCCESS - A command was successfully read.
 350:.\Generated_Source\PSoC4/BLE_bts.c **** *     * CYRET_BAD_DATA - The size of the command exceeds the buffer.
 351:.\Generated_Source\PSoC4/BLE_bts.c **** *     * CYRET_TIMEOUT - The host controller did not respond to the read in 10 
 352:.\Generated_Source\PSoC4/BLE_bts.c **** *                       milliseconds * timeOut milliseconds.
 353:.\Generated_Source\PSoC4/BLE_bts.c **** * 
 354:.\Generated_Source\PSoC4/BLE_bts.c **** * \sideeffect
 355:.\Generated_Source\PSoC4/BLE_bts.c **** *  CyBle_ProcessEvents() is called as a part of this function.
 356:.\Generated_Source\PSoC4/BLE_bts.c **** * 
 357:.\Generated_Source\PSoC4/BLE_bts.c **** ******************************************************************************/
 358:.\Generated_Source\PSoC4/BLE_bts.c **** cystatus CyBLE_CyBtldrCommRead(uint8 data[], uint16 size, uint16 *count, uint8 timeOut)
 359:.\Generated_Source\PSoC4/BLE_bts.c **** {
 622              		.loc 1 359 0
 623              		.cfi_startproc
 624 0000 90B5     		push	{r4, r7, lr}
 625              		.cfi_def_cfa_offset 12
 626              		.cfi_offset 4, -12
 627              		.cfi_offset 7, -8
 628              		.cfi_offset 14, -4
 629 0002 87B0     		sub	sp, sp, #28
 630              		.cfi_def_cfa_offset 40
 631 0004 00AF     		add	r7, sp, #0
 632              		.cfi_def_cfa_register 7
 633 0006 F860     		str	r0, [r7, #12]
 634 0008 081C     		mov	r0, r1
 635 000a 7A60     		str	r2, [r7, #4]
 636 000c 191C     		mov	r1, r3
 637 000e 0A23     		mov	r3, #10
 638 0010 FB18     		add	r3, r7, r3
 639 0012 021C     		add	r2, r0, #0
 640 0014 1A80     		strh	r2, [r3]
 641 0016 0923     		mov	r3, #9
 642 0018 FB18     		add	r3, r7, r3
 643 001a 0A1C     		add	r2, r1, #0
 644 001c 1A70     		strb	r2, [r3]
 360:.\Generated_Source\PSoC4/BLE_bts.c ****     uint32 timeoutUs;
 361:.\Generated_Source\PSoC4/BLE_bts.c ****     cystatus locStatus = CYRET_TIMEOUT;
 645              		.loc 1 361 0
 646 001e 1023     		mov	r3, #16
 647 0020 3B61     		str	r3, [r7, #16]
 362:.\Generated_Source\PSoC4/BLE_bts.c **** 
 363:.\Generated_Source\PSoC4/BLE_bts.c ****     /* Convert from 10ms units to 100us units */
 364:.\Generated_Source\PSoC4/BLE_bts.c ****     timeoutUs = ((uint32) 100u * timeOut);
 648              		.loc 1 364 0
 649 0022 0923     		mov	r3, #9
 650 0024 FB18     		add	r3, r7, r3
 651 0026 1B78     		ldrb	r3, [r3]
 652 0028 6422     		mov	r2, #100
 653 002a 5343     		mul	r3, r2
 654 002c 7B61     		str	r3, [r7, #20]
 365:.\Generated_Source\PSoC4/BLE_bts.c ****     
 366:.\Generated_Source\PSoC4/BLE_bts.c ****     while(0u != timeoutUs)
 655              		.loc 1 366 0
ARM GAS  C:\Users\zpstrwy\AppData\Local\Temp\ccc9zD51.s 			page 19


 656 002e 2FE0     		b	.L36
 657              	.L41:
 367:.\Generated_Source\PSoC4/BLE_bts.c ****     {
 368:.\Generated_Source\PSoC4/BLE_bts.c ****         /* Process BLE events */
 369:.\Generated_Source\PSoC4/BLE_bts.c ****         CyBle_ProcessEvents();
 658              		.loc 1 369 0
 659 0030 FFF7FEFF 		bl	CyBle_ProcessEvents
 370:.\Generated_Source\PSoC4/BLE_bts.c ****         
 371:.\Generated_Source\PSoC4/BLE_bts.c ****         if(cyBle_cmdReceivedFlag == 1u)
 660              		.loc 1 371 0
 661 0034 1B4B     		ldr	r3, .L43
 662 0036 1B78     		ldrb	r3, [r3]
 663 0038 012B     		cmp	r3, #1
 664 003a 23D1     		bne	.L37
 372:.\Generated_Source\PSoC4/BLE_bts.c ****         {
 373:.\Generated_Source\PSoC4/BLE_bts.c ****             /* Clear command receive flag */
 374:.\Generated_Source\PSoC4/BLE_bts.c ****             cyBle_cmdReceivedFlag = 0u;
 665              		.loc 1 374 0
 666 003c 194B     		ldr	r3, .L43
 667 003e 0022     		mov	r2, #0
 668 0040 1A70     		strb	r2, [r3]
 375:.\Generated_Source\PSoC4/BLE_bts.c **** 
 376:.\Generated_Source\PSoC4/BLE_bts.c ****             if(cyBle_cmdLength < size)
 669              		.loc 1 376 0
 670 0042 194B     		ldr	r3, .L43+4
 671 0044 1B88     		ldrh	r3, [r3]
 672 0046 0A22     		mov	r2, #10
 673 0048 BA18     		add	r2, r7, r2
 674 004a 1288     		ldrh	r2, [r2]
 675 004c 9A42     		cmp	r2, r3
 676 004e 11D9     		bls	.L38
 377:.\Generated_Source\PSoC4/BLE_bts.c ****             {
 378:.\Generated_Source\PSoC4/BLE_bts.c ****                 (void)memcpy((void *) data, (const void *) cyBle_btsBuffPtr, cyBle_cmdLength);
 677              		.loc 1 378 0
 678 0050 164B     		ldr	r3, .L43+8
 679 0052 1A68     		ldr	r2, [r3]
 680 0054 144B     		ldr	r3, .L43+4
 681 0056 1B88     		ldrh	r3, [r3]
 682 0058 1C1C     		mov	r4, r3
 683 005a FB68     		ldr	r3, [r7, #12]
 684 005c 181C     		mov	r0, r3
 685 005e 111C     		mov	r1, r2
 686 0060 221C     		mov	r2, r4
 687 0062 FFF7FEFF 		bl	memcpy
 379:.\Generated_Source\PSoC4/BLE_bts.c **** 
 380:.\Generated_Source\PSoC4/BLE_bts.c ****                 /* Return actual received command length */
 381:.\Generated_Source\PSoC4/BLE_bts.c ****                 *count = cyBle_cmdLength;
 688              		.loc 1 381 0
 689 0066 104B     		ldr	r3, .L43+4
 690 0068 1A88     		ldrh	r2, [r3]
 691 006a 7B68     		ldr	r3, [r7, #4]
 692 006c 1A80     		strh	r2, [r3]
 382:.\Generated_Source\PSoC4/BLE_bts.c ****                 
 383:.\Generated_Source\PSoC4/BLE_bts.c ****                 locStatus = CYRET_SUCCESS;
 693              		.loc 1 383 0
 694 006e 0023     		mov	r3, #0
 695 0070 3B61     		str	r3, [r7, #16]
ARM GAS  C:\Users\zpstrwy\AppData\Local\Temp\ccc9zD51.s 			page 20


 384:.\Generated_Source\PSoC4/BLE_bts.c ****             }
 385:.\Generated_Source\PSoC4/BLE_bts.c ****             else
 386:.\Generated_Source\PSoC4/BLE_bts.c ****             {
 387:.\Generated_Source\PSoC4/BLE_bts.c ****                 data = NULL;
 388:.\Generated_Source\PSoC4/BLE_bts.c ****                 *count = 0u;
 389:.\Generated_Source\PSoC4/BLE_bts.c ****                 locStatus = CYRET_BAD_DATA;
 390:.\Generated_Source\PSoC4/BLE_bts.c ****             }
 391:.\Generated_Source\PSoC4/BLE_bts.c ****             break;
 696              		.loc 1 391 0
 697 0072 10E0     		b	.L40
 698              	.L38:
 387:.\Generated_Source\PSoC4/BLE_bts.c ****                 *count = 0u;
 699              		.loc 1 387 0
 700 0074 0023     		mov	r3, #0
 701 0076 FB60     		str	r3, [r7, #12]
 388:.\Generated_Source\PSoC4/BLE_bts.c ****                 locStatus = CYRET_BAD_DATA;
 702              		.loc 1 388 0
 703 0078 7B68     		ldr	r3, [r7, #4]
 704 007a 0022     		mov	r2, #0
 705 007c 1A80     		strh	r2, [r3]
 389:.\Generated_Source\PSoC4/BLE_bts.c ****             }
 706              		.loc 1 389 0
 707 007e 0623     		mov	r3, #6
 708 0080 3B61     		str	r3, [r7, #16]
 709              		.loc 1 391 0
 710 0082 08E0     		b	.L40
 711              	.L37:
 392:.\Generated_Source\PSoC4/BLE_bts.c ****         }
 393:.\Generated_Source\PSoC4/BLE_bts.c ****         /* Wait 100 us and update timeout counter */
 394:.\Generated_Source\PSoC4/BLE_bts.c ****         CyDelayUs(CYBLE_BTS_TIMEOUT_PERIOD);
 712              		.loc 1 394 0
 713 0084 6420     		mov	r0, #100
 714 0086 FFF7FEFF 		bl	CyDelayUs
 395:.\Generated_Source\PSoC4/BLE_bts.c ****         timeoutUs -= CYBLE_BTS_TIMEOUT_PERIOD;
 715              		.loc 1 395 0
 716 008a 7B69     		ldr	r3, [r7, #20]
 717 008c 643B     		sub	r3, r3, #100
 718 008e 7B61     		str	r3, [r7, #20]
 719              	.L36:
 366:.\Generated_Source\PSoC4/BLE_bts.c ****     {
 720              		.loc 1 366 0
 721 0090 7B69     		ldr	r3, [r7, #20]
 722 0092 002B     		cmp	r3, #0
 723 0094 CCD1     		bne	.L41
 724              	.L40:
 396:.\Generated_Source\PSoC4/BLE_bts.c ****     }
 397:.\Generated_Source\PSoC4/BLE_bts.c ****     
 398:.\Generated_Source\PSoC4/BLE_bts.c ****     /* Process BLE events */
 399:.\Generated_Source\PSoC4/BLE_bts.c ****     CyBle_ProcessEvents();
 725              		.loc 1 399 0
 726 0096 FFF7FEFF 		bl	CyBle_ProcessEvents
 400:.\Generated_Source\PSoC4/BLE_bts.c **** 
 401:.\Generated_Source\PSoC4/BLE_bts.c ****     return(locStatus);
 727              		.loc 1 401 0
 728 009a 3B69     		ldr	r3, [r7, #16]
 402:.\Generated_Source\PSoC4/BLE_bts.c **** }
 729              		.loc 1 402 0
ARM GAS  C:\Users\zpstrwy\AppData\Local\Temp\ccc9zD51.s 			page 21


 730 009c 181C     		mov	r0, r3
 731 009e BD46     		mov	sp, r7
 732 00a0 07B0     		add	sp, sp, #28
 733              		@ sp needed
 734 00a2 90BD     		pop	{r4, r7, pc}
 735              	.L44:
 736              		.align	2
 737              	.L43:
 738 00a4 00000000 		.word	cyBle_cmdReceivedFlag
 739 00a8 00000000 		.word	cyBle_cmdLength
 740 00ac 00000000 		.word	cyBle_btsBuffPtr
 741              		.cfi_endproc
 742              	.LFE9:
 743              		.size	CyBLE_CyBtldrCommRead, .-CyBLE_CyBtldrCommRead
 744              		.text
 745              	.Letext0:
 746              		.file 2 ".\\Generated_Source\\PSoC4\\cytypes.h"
 747              		.file 3 ".\\Generated_Source\\PSoC4\\BLE_Stack.h"
 748              		.file 4 ".\\Generated_Source\\PSoC4\\BLE_StackGatt.h"
 749              		.file 5 ".\\Generated_Source\\PSoC4\\BLE_StackGattServer.h"
 750              		.file 6 ".\\Generated_Source\\PSoC4\\BLE_StackGattDb.h"
 751              		.file 7 ".\\Generated_Source\\PSoC4\\BLE_bts.h"
 752              		.file 8 ".\\Generated_Source\\PSoC4\\BLE_eventHandler.h"
 753              		.file 9 ".\\Generated_Source\\PSoC4\\BLE.h"
 754              		.file 10 ".\\Generated_Source\\PSoC4\\BLE_gatt.h"