ARM GAS  C:\Users\zpstrwy\AppData\Local\Temp\ccHssAFB.s 			page 1


   1              		.cpu cortex-m0
   2              		.fpu softvfp
   3              		.eabi_attribute 20, 1
   4              		.eabi_attribute 21, 1
   5              		.eabi_attribute 23, 3
   6              		.eabi_attribute 24, 1
   7              		.eabi_attribute 25, 1
   8              		.eabi_attribute 26, 1
   9              		.eabi_attribute 30, 6
  10              		.eabi_attribute 34, 0
  11              		.eabi_attribute 18, 4
  12              		.code	16
  13              		.file	"BLE_gatt.c"
  14              		.text
  15              	.Ltext0:
  16              		.cfi_sections	.debug_frame
  17              		.comm	cyBle_state,1,1
  18              		.global	cyBle_gatts
  19              		.section	.rodata
  20              		.align	2
  21              		.type	cyBle_gatts, %object
  22              		.size	cyBle_gatts, 6
  23              	cyBle_gatts:
  24 0000 0A00     		.short	10
  25 0002 0C00     		.short	12
  26 0004 0D00     		.short	13
  27              		.data
  28              		.align	2
  29              		.type	cyBle_attValues, %object
  30              		.size	cyBle_attValues, 48
  31              	cyBle_attValues:
  32 0000 46       		.byte	70
  33 0001 69       		.byte	105
  34 0002 6E       		.byte	110
  35 0003 64       		.byte	100
  36 0004 20       		.byte	32
  37 0005 4D       		.byte	77
  38 0006 65       		.byte	101
  39 0007 20       		.byte	32
  40 0008 54       		.byte	84
  41 0009 61       		.byte	97
  42 000a 72       		.byte	114
  43 000b 67       		.byte	103
  44 000c 65       		.byte	101
  45 000d 74       		.byte	116
  46 000e 40       		.byte	64
  47 000f 02       		.byte	2
  48 0010 06       		.byte	6
  49 0011 00       		.byte	0
  50 0012 28       		.byte	40
  51 0013 00       		.byte	0
  52 0014 00       		.byte	0
  53 0015 00       		.byte	0
  54 0016 E8       		.byte	-24
  55 0017 03       		.byte	3
  56 0018 00       		.byte	0
  57 0019 00       		.byte	0
ARM GAS  C:\Users\zpstrwy\AppData\Local\Temp\ccHssAFB.s 			page 2


  58 001a 00       		.byte	0
  59 001b 00       		.byte	0
  60 001c 00       		.byte	0
  61 001d 00       		.byte	0
  62 001e 00       		.byte	0
  63 001f 00       		.byte	0
  64 0020 FB       		.byte	-5
  65 0021 34       		.byte	52
  66 0022 9B       		.byte	-101
  67 0023 5F       		.byte	95
  68 0024 80       		.byte	-128
  69 0025 00       		.byte	0
  70 0026 00       		.byte	0
  71 0027 80       		.byte	-128
  72 0028 00       		.byte	0
  73 0029 10       		.byte	16
  74 002a 00       		.byte	0
  75 002b 00       		.byte	0
  76 002c 00       		.byte	0
  77 002d 00       		.byte	0
  78 002e 00       		.byte	0
  79 002f 00       		.byte	0
  80              		.comm	cyBle_attValuesCCCD,2,4
  81              		.global	cyBle_attUuid128
  82              		.section	.rodata
  83 0006 0000     		.align	2
  84              		.type	cyBle_attUuid128, %object
  85              		.size	cyBle_attUuid128, 32
  86              	cyBle_attUuid128:
  87 0008 FB       		.byte	-5
  88 0009 34       		.byte	52
  89 000a 9B       		.byte	-101
  90 000b 5F       		.byte	95
  91 000c 80       		.byte	-128
  92 000d 00       		.byte	0
  93 000e 00       		.byte	0
  94 000f 80       		.byte	-128
  95 0010 00       		.byte	0
  96 0011 10       		.byte	16
  97 0012 00       		.byte	0
  98 0013 00       		.byte	0
  99 0014 00       		.byte	0
 100 0015 00       		.byte	0
 101 0016 00       		.byte	0
 102 0017 00       		.byte	0
 103 0018 FB       		.byte	-5
 104 0019 34       		.byte	52
 105 001a 9B       		.byte	-101
 106 001b 5F       		.byte	95
 107 001c 80       		.byte	-128
 108 001d 00       		.byte	0
 109 001e 00       		.byte	0
 110 001f 80       		.byte	-128
 111 0020 00       		.byte	0
 112 0021 10       		.byte	16
 113 0022 00       		.byte	0
 114 0023 00       		.byte	0
ARM GAS  C:\Users\zpstrwy\AppData\Local\Temp\ccHssAFB.s 			page 3


 115 0024 00       		.byte	0
 116 0025 00       		.byte	0
 117 0026 00       		.byte	0
 118 0027 00       		.byte	0
 119              		.global	cyBle_attValuesLen
 120              		.data
 121              		.align	2
 122              		.type	cyBle_attValuesLen, %object
 123              		.size	cyBle_attValuesLen, 88
 124              	cyBle_attValuesLen:
 125 0030 0E00     		.short	14
 126 0032 0000     		.space	2
 127 0034 00000000 		.word	cyBle_attValues
 128 0038 0200     		.short	2
 129 003a 0000     		.space	2
 130 003c 0E000000 		.word	cyBle_attValues+14
 131 0040 0800     		.short	8
 132 0042 0000     		.space	2
 133 0044 10000000 		.word	cyBle_attValues+16
 134 0048 0100     		.short	1
 135 004a 0000     		.space	2
 136 004c 18000000 		.word	cyBle_attValues+24
 137 0050 0400     		.short	4
 138 0052 0000     		.space	2
 139 0054 19000000 		.word	cyBle_attValues+25
 140 0058 0200     		.short	2
 141 005a 0000     		.space	2
 142 005c 00000000 		.word	cyBle_attValuesCCCD
 143 0060 0100     		.short	1
 144 0062 0000     		.space	2
 145 0064 1D000000 		.word	cyBle_attValues+29
 146 0068 1000     		.short	16
 147 006a 0000     		.space	2
 148 006c 00000000 		.word	cyBle_attUuid128
 149 0070 1000     		.short	16
 150 0072 0000     		.space	2
 151 0074 10000000 		.word	cyBle_attUuid128+16
 152 0078 0100     		.short	1
 153 007a 0000     		.space	2
 154 007c 1E000000 		.word	cyBle_attValues+30
 155 0080 0100     		.short	1
 156 0082 0000     		.space	2
 157 0084 1F000000 		.word	cyBle_attValues+31
 158              		.global	cyBle_gattDB
 159              		.section	.rodata
 160              		.align	2
 161              		.type	cyBle_gattDB, %object
 162              		.size	cyBle_gattDB, 400
 163              	cyBle_gattDB:
 164 0028 0100     		.short	1
 165 002a 0028     		.short	10240
 166 002c 01000000 		.word	1
 167 0030 0900     		.short	9
 168 0032 0000     		.space	2
 169 0034 0018     		.short	6144
 170 0036 0000     		.space	2
 171 0038 00000000 		.word	0
ARM GAS  C:\Users\zpstrwy\AppData\Local\Temp\ccHssAFB.s 			page 4


 172 003c 0200     		.short	2
 173 003e 0328     		.short	10243
 174 0040 01020000 		.word	513
 175 0044 0300     		.short	3
 176 0046 0000     		.space	2
 177 0048 002A     		.short	10752
 178 004a 0000     		.space	2
 179 004c 00000000 		.word	0
 180 0050 0300     		.short	3
 181 0052 002A     		.short	10752
 182 0054 01020000 		.word	513
 183 0058 0300     		.short	3
 184 005a 0000     		.space	2
 185 005c 0E00     		.short	14
 186 005e 0000     		.space	2
 187 0060 00000000 		.word	cyBle_attValuesLen
 188 0064 0400     		.short	4
 189 0066 0328     		.short	10243
 190 0068 01020000 		.word	513
 191 006c 0500     		.short	5
 192 006e 0000     		.space	2
 193 0070 012A     		.short	10753
 194 0072 0000     		.space	2
 195 0074 00000000 		.word	0
 196 0078 0500     		.short	5
 197 007a 012A     		.short	10753
 198 007c 01020000 		.word	513
 199 0080 0500     		.short	5
 200 0082 0000     		.space	2
 201 0084 0200     		.short	2
 202 0086 0000     		.space	2
 203 0088 08000000 		.word	cyBle_attValuesLen+8
 204 008c 0600     		.short	6
 205 008e 0328     		.short	10243
 206 0090 01020000 		.word	513
 207 0094 0700     		.short	7
 208 0096 0000     		.space	2
 209 0098 042A     		.short	10756
 210 009a 0000     		.space	2
 211 009c 00000000 		.word	0
 212 00a0 0700     		.short	7
 213 00a2 042A     		.short	10756
 214 00a4 01020000 		.word	513
 215 00a8 0700     		.short	7
 216 00aa 0000     		.space	2
 217 00ac 0800     		.short	8
 218 00ae 0000     		.space	2
 219 00b0 10000000 		.word	cyBle_attValuesLen+16
 220 00b4 0800     		.short	8
 221 00b6 0328     		.short	10243
 222 00b8 01020000 		.word	513
 223 00bc 0900     		.short	9
 224 00be 0000     		.space	2
 225 00c0 A62A     		.short	10918
 226 00c2 0000     		.space	2
 227 00c4 00000000 		.word	0
 228 00c8 0900     		.short	9
ARM GAS  C:\Users\zpstrwy\AppData\Local\Temp\ccHssAFB.s 			page 5


 229 00ca A62A     		.short	10918
 230 00cc 01020000 		.word	513
 231 00d0 0900     		.short	9
 232 00d2 0000     		.space	2
 233 00d4 0100     		.short	1
 234 00d6 0000     		.space	2
 235 00d8 18000000 		.word	cyBle_attValuesLen+24
 236 00dc 0A00     		.short	10
 237 00de 0028     		.short	10240
 238 00e0 01000000 		.word	1
 239 00e4 0D00     		.short	13
 240 00e6 0000     		.space	2
 241 00e8 0118     		.short	6145
 242 00ea 0000     		.space	2
 243 00ec 00000000 		.word	0
 244 00f0 0B00     		.short	11
 245 00f2 0328     		.short	10243
 246 00f4 01200000 		.word	8193
 247 00f8 0D00     		.short	13
 248 00fa 0000     		.space	2
 249 00fc 052A     		.short	10757
 250 00fe 0000     		.space	2
 251 0100 00000000 		.word	0
 252 0104 0C00     		.short	12
 253 0106 052A     		.short	10757
 254 0108 00200000 		.word	8192
 255 010c 0D00     		.short	13
 256 010e 0000     		.space	2
 257 0110 0400     		.short	4
 258 0112 0000     		.space	2
 259 0114 20000000 		.word	cyBle_attValuesLen+32
 260 0118 0D00     		.short	13
 261 011a 0229     		.short	10498
 262 011c 040A0000 		.word	2564
 263 0120 0D00     		.short	13
 264 0122 0000     		.space	2
 265 0124 0200     		.short	2
 266 0126 0000     		.space	2
 267 0128 28000000 		.word	cyBle_attValuesLen+40
 268 012c 0E00     		.short	14
 269 012e 0028     		.short	10240
 270 0130 01000000 		.word	1
 271 0134 1000     		.short	16
 272 0136 0000     		.space	2
 273 0138 0218     		.short	6146
 274 013a 0000     		.space	2
 275 013c 00000000 		.word	0
 276 0140 0F00     		.short	15
 277 0142 0328     		.short	10243
 278 0144 01040000 		.word	1025
 279 0148 1000     		.short	16
 280 014a 0000     		.space	2
 281 014c 062A     		.short	10758
 282 014e 0000     		.space	2
 283 0150 00000000 		.word	0
 284 0154 1000     		.short	16
 285 0156 062A     		.short	10758
ARM GAS  C:\Users\zpstrwy\AppData\Local\Temp\ccHssAFB.s 			page 6


 286 0158 02040000 		.word	1026
 287 015c 1000     		.short	16
 288 015e 0000     		.space	2
 289 0160 0100     		.short	1
 290 0162 0000     		.space	2
 291 0164 30000000 		.word	cyBle_attValuesLen+48
 292 0168 1100     		.short	17
 293 016a 0028     		.short	10240
 294 016c 01000800 		.word	524289
 295 0170 1400     		.short	20
 296 0172 0000     		.space	2
 297 0174 1000     		.short	16
 298 0176 0000     		.space	2
 299 0178 38000000 		.word	cyBle_attValuesLen+56
 300 017c 1200     		.short	18
 301 017e 0328     		.short	10243
 302 0180 01040000 		.word	1025
 303 0184 1400     		.short	20
 304 0186 0000     		.space	2
 305 0188 1000     		.short	16
 306 018a 0000     		.space	2
 307 018c 40000000 		.word	cyBle_attValuesLen+64
 308 0190 1300     		.short	19
 309 0192 0000     		.short	0
 310 0194 02040900 		.word	590850
 311 0198 1400     		.short	20
 312 019a 0000     		.space	2
 313 019c 0100     		.short	1
 314 019e 0000     		.space	2
 315 01a0 48000000 		.word	cyBle_attValuesLen+72
 316 01a4 1400     		.short	20
 317 01a6 0000     		.short	0
 318 01a8 04000900 		.word	589828
 319 01ac 1400     		.short	20
 320 01ae 0000     		.space	2
 321 01b0 0100     		.short	1
 322 01b2 0000     		.space	2
 323 01b4 50000000 		.word	cyBle_attValuesLen+80
 324              		.section	.text.CyBle_GattsReInitGattDb,"ax",%progbits
 325              		.align	2
 326              		.global	CyBle_GattsReInitGattDb
 327              		.code	16
 328              		.thumb_func
 329              		.type	CyBle_GattsReInitGattDb, %function
 330              	CyBle_GattsReInitGattDb:
 331              	.LFB2:
 332              		.file 1 ".\\Generated_Source\\PSoC4\\BLE_gatt.c"
   1:.\Generated_Source\PSoC4/BLE_gatt.c **** /***************************************************************************//**
   2:.\Generated_Source\PSoC4/BLE_gatt.c **** * \file CYBLE_gatt.c
   3:.\Generated_Source\PSoC4/BLE_gatt.c **** * \version 3.10
   4:.\Generated_Source\PSoC4/BLE_gatt.c **** * 
   5:.\Generated_Source\PSoC4/BLE_gatt.c **** * \brief
   6:.\Generated_Source\PSoC4/BLE_gatt.c **** *  This file contains the source code for the GATT API of the BLE Component.
   7:.\Generated_Source\PSoC4/BLE_gatt.c **** * 
   8:.\Generated_Source\PSoC4/BLE_gatt.c **** ********************************************************************************
   9:.\Generated_Source\PSoC4/BLE_gatt.c **** * \copyright
  10:.\Generated_Source\PSoC4/BLE_gatt.c **** * Copyright 2014-2016, Cypress Semiconductor Corporation.  All rights reserved.
ARM GAS  C:\Users\zpstrwy\AppData\Local\Temp\ccHssAFB.s 			page 7


  11:.\Generated_Source\PSoC4/BLE_gatt.c **** * You may use this file only in accordance with the license, terms, conditions,
  12:.\Generated_Source\PSoC4/BLE_gatt.c **** * disclaimers, and limitations in the end user license agreement accompanying
  13:.\Generated_Source\PSoC4/BLE_gatt.c **** * the software package with which this file was provided.
  14:.\Generated_Source\PSoC4/BLE_gatt.c **** *******************************************************************************/
  15:.\Generated_Source\PSoC4/BLE_gatt.c **** 
  16:.\Generated_Source\PSoC4/BLE_gatt.c **** 
  17:.\Generated_Source\PSoC4/BLE_gatt.c **** #include "BLE_eventHandler.h"
  18:.\Generated_Source\PSoC4/BLE_gatt.c **** 
  19:.\Generated_Source\PSoC4/BLE_gatt.c **** 
  20:.\Generated_Source\PSoC4/BLE_gatt.c **** /***************************************
  21:.\Generated_Source\PSoC4/BLE_gatt.c **** * Global variables
  22:.\Generated_Source\PSoC4/BLE_gatt.c **** ***************************************/
  23:.\Generated_Source\PSoC4/BLE_gatt.c **** 
  24:.\Generated_Source\PSoC4/BLE_gatt.c **** CYBLE_STATE_T cyBle_state;
  25:.\Generated_Source\PSoC4/BLE_gatt.c **** 
  26:.\Generated_Source\PSoC4/BLE_gatt.c **** #if ((CYBLE_MODE_PROFILE) && (CYBLE_BONDING_REQUIREMENT == CYBLE_BONDING_YES))
  27:.\Generated_Source\PSoC4/BLE_gatt.c ****     
  28:.\Generated_Source\PSoC4/BLE_gatt.c **** #if(CYBLE_MODE_PROFILE)
  29:.\Generated_Source\PSoC4/BLE_gatt.c ****     #if defined(__ARMCC_VERSION)
  30:.\Generated_Source\PSoC4/BLE_gatt.c ****         CY_ALIGN(CYDEV_FLS_ROW_SIZE) const CY_BLE_FLASH_STORAGE cyBle_flashStorage CY_SECTION(".cy_
  31:.\Generated_Source\PSoC4/BLE_gatt.c ****     #elif defined (__GNUC__)
  32:.\Generated_Source\PSoC4/BLE_gatt.c ****         const CY_BLE_FLASH_STORAGE cyBle_flashStorage CY_SECTION(".cy_checksum_exclude")
  33:.\Generated_Source\PSoC4/BLE_gatt.c ****             CY_ALIGN(CYDEV_FLS_ROW_SIZE) =
  34:.\Generated_Source\PSoC4/BLE_gatt.c ****     #elif defined (__ICCARM__)
  35:.\Generated_Source\PSoC4/BLE_gatt.c ****         #pragma data_alignment=CY_FLASH_SIZEOF_ROW
  36:.\Generated_Source\PSoC4/BLE_gatt.c ****         #pragma location=".cy_checksum_exclude"
  37:.\Generated_Source\PSoC4/BLE_gatt.c ****         const CY_BLE_FLASH_STORAGE cyBle_flashStorage =
  38:.\Generated_Source\PSoC4/BLE_gatt.c ****     #endif  /* (__ARMCC_VERSION) */
  39:.\Generated_Source\PSoC4/BLE_gatt.c ****     {
  40:.\Generated_Source\PSoC4/BLE_gatt.c ****         { 0x00u, 0x00u, 0x00u, 0x00u, 0x00u, 0x00u, 0x00u, 0x00u, 0x00u, 0x00u, 0x00u, 0x00u, 0x00u
  41:.\Generated_Source\PSoC4/BLE_gatt.c ****         0x00u, 0x00u, 0x00u, 0x00u, 0x00u, 0x00u, 0x00u, 0x00u, 0x00u, 0x00u, 0x00u, 0x00u, 0x00u, 
  42:.\Generated_Source\PSoC4/BLE_gatt.c ****         0x00u, 0x00u, 0x00u, 0x00u, 0x00u, 0x00u, 0x00u, 0x00u, 0x00u, 0x00u, 0x00u, 0x00u, 0x00u, 
  43:.\Generated_Source\PSoC4/BLE_gatt.c ****         0x00u, 0x00u, 0x00u, 0x00u, 0x00u, 0x00u, 0x00u, 0x00u, 0x00u, 0x00u, 0x00u, 0x00u, 0x00u, 
  44:.\Generated_Source\PSoC4/BLE_gatt.c ****         0x00u, 0x00u, 0x00u, 0x00u, 0x00u, 0x00u, 0x00u, 0x00u, 0x00u, 0x00u, 0x00u, 0x00u, 0x00u, 
  45:.\Generated_Source\PSoC4/BLE_gatt.c ****         0x00u, 0x00u, 0x00u, 0x00u, 0x00u, 0x00u, 0x00u, 0x00u, 0x00u, 0x00u, 0x00u, 0x00u, 0x00u, 
  46:.\Generated_Source\PSoC4/BLE_gatt.c ****         0x00u, 0x00u, 0x00u, 0x00u, 0x00u, 0x00u, 0x00u, 0x00u, 0x00u, 0x00u, 0x00u, 0x00u, 0x00u, 
  47:.\Generated_Source\PSoC4/BLE_gatt.c ****         0x00u, 0x00u, 0x00u, 0x00u, 0x00u, 0x00u, 0x00u, 0x00u, 0x00u, 0x00u, 0x00u, 0x00u, 0x00u, 
  48:.\Generated_Source\PSoC4/BLE_gatt.c ****         0x00u, 0x00u, 0x00u, 0x00u, 0x00u, 0x00u, 0x00u, 0x00u, 0x00u, 0x00u, 0x00u, 0x00u, 0x00u, 
  49:.\Generated_Source\PSoC4/BLE_gatt.c ****         0x00u, 0x00u, 0x00u, 0x00u, 0x00u, 0x00u, 0x00u, 0x00u, 0x00u, 0x00u, 0x00u, 0x00u, 0x00u, 
  50:.\Generated_Source\PSoC4/BLE_gatt.c ****         0x00u, 0x00u, 0x00u, 0x00u, 0x00u, 0x00u, 0x00u, 0x00u, 0x00u, 0x00u, 0x00u, 0x00u, 0x00u, 
  51:.\Generated_Source\PSoC4/BLE_gatt.c ****         0x00u, 0x00u, 0x00u, 0x00u, 0x00u, 0x00u, 0x00u, 0x00u, 0x00u, 0x00u, 0x00u, 0x00u, 0x00u, 
  52:.\Generated_Source\PSoC4/BLE_gatt.c ****         0x00u, 0x00u, 0x00u, 0x00u, 0x00u, 0x00u, 0x00u, 0x00u, 0x00u, 0x00u, 0x00u, 0x00u, 0x00u, 
  53:.\Generated_Source\PSoC4/BLE_gatt.c ****         0x00u, 0x00u, 0x00u, 0x00u, 0x00u, 0x00u, 0x00u, 0x00u, 0x00u, 0x00u, 0x00u, 0x00u, 0x00u, 
  54:.\Generated_Source\PSoC4/BLE_gatt.c ****         0x00u, 0x00u, 0x00u, 0x00u, 0x00u, 0x00u, 0x00u, 0x00u, 0x00u, 0x00u, 0x00u, 0x00u, 0x00u, 
  55:.\Generated_Source\PSoC4/BLE_gatt.c ****         0x00u, 0x00u, 0x00u, 0x00u, 0x00u, 0x00u, 0x00u, 0x00u, 0x00u, 0x00u, 0x00u, 0x00u, 0x00u, 
  56:.\Generated_Source\PSoC4/BLE_gatt.c ****         0x00u, 0x00u, 0x00u, 0x00u, 0x00u, 0x00u, 0x00u, 0x00u, 0x00u, 0x00u, 0x00u, 0x00u, 0x00u, 
  57:.\Generated_Source\PSoC4/BLE_gatt.c ****         0x00u, 0x00u, 0x00u, 0x00u, 0x00u, 0x00u, 0x00u, 0x00u, 0x00u, 0x00u, 0x00u, 0x00u, 0x00u, 
  58:.\Generated_Source\PSoC4/BLE_gatt.c ****         0x00u, 0x00u, 0x00u, 0x00u, 0x00u, 0x00u, 0x00u, 0x00u, 0x00u, 0x00u, 0x00u, 0x00u, 0x00u, 
  59:.\Generated_Source\PSoC4/BLE_gatt.c ****         0x00u, 0x00u, 0x00u, 0x00u, 0x00u, 0x00u, 0x00u, 0x00u, 0x00u, 0x00u, 0x00u, 0x00u, 0x00u, 
  60:.\Generated_Source\PSoC4/BLE_gatt.c ****         0x00u, 0x00u, 0x00u, 0x00u, 0x00u, 0x00u, 0x00u, 0x00u, 0x00u, 0x00u, 0x00u, 0x00u, 0x00u, 
  61:.\Generated_Source\PSoC4/BLE_gatt.c ****         0x00u, 0x00u, 0x00u, 0x00u, 0x00u, 0x00u, 0x00u, 0x00u, 0x00u, 0x00u, 0x00u, 0x00u, 0x00u, 
  62:.\Generated_Source\PSoC4/BLE_gatt.c ****         0x00u, 0x00u, 0x00u, 0x00u, 0x00u, 0x00u, 0x00u, 0x00u, 0x00u, 0x00u, 0x00u, 0x00u, 0x00u, 
  63:.\Generated_Source\PSoC4/BLE_gatt.c ****         0x00u, 0x00u, 0x00u, 0x00u, 0x00u, 0x00u, 0x00u, 0x00u, 0x00u, 0x00u, 0x00u, 0x00u, 0x00u, 
  64:.\Generated_Source\PSoC4/BLE_gatt.c ****         0x00u, 0x00u, 0x00u, 0x00u, 0x00u, 0x00u, 0x00u, 0x00u, 0x00u, 0x00u, 0x00u, 0x00u, 0x00u, 
  65:.\Generated_Source\PSoC4/BLE_gatt.c ****         0x00u, 0x00u, 0x00u, 0x00u, 0x00u, 0x00u, 0x00u, 0x00u, 0x00u, 0x00u, 0x00u, 0x00u, 0x00u, 
  66:.\Generated_Source\PSoC4/BLE_gatt.c ****         0x00u, 0x00u, 0x00u, 0x00u, 0x00u, 0x00u, 0x00u, 0x00u, 0x00u, 0x00u, 0x00u, 0x00u, 0x00u, 
  67:.\Generated_Source\PSoC4/BLE_gatt.c ****         0x00u, 0x00u, 0x00u, 0x00u, 0x00u, 0x00u, 0x00u, 0x00u, 0x00u, 0x00u, 0x00u, 0x00u, 0x00u, 
ARM GAS  C:\Users\zpstrwy\AppData\Local\Temp\ccHssAFB.s 			page 8


  68:.\Generated_Source\PSoC4/BLE_gatt.c ****         0x00u, 0x00u, 0x00u, 0x00u, 0x00u, 0x00u, 0x00u, 0x00u, 0x00u, 0x00u, 0x00u, 0x00u, 0x00u, 
  69:.\Generated_Source\PSoC4/BLE_gatt.c ****         0x00u, 0x00u, 0x00u, 0x00u, 0x00u, 0x00u, 0x00u, 0x00u, 0x00u, 0x00u, 0x00u, 0x00u, 0x00u, 
  70:.\Generated_Source\PSoC4/BLE_gatt.c ****         0x00u, 0x00u, 0x00u, 0x00u, 0x00u, 0x00u, 0x00u, 0x00u, 0x00u, 0x00u, 0x00u, 0x00u, 0x00u, 
  71:.\Generated_Source\PSoC4/BLE_gatt.c ****         0x00u, 0x00u, 0x00u, 0x00u, 0x00u, 0x00u, 0x00u, 0x00u, 0x00u, 0x00u, 0x00u, 0x00u, 0x00u, 
  72:.\Generated_Source\PSoC4/BLE_gatt.c ****         0x00u, 0x00u, 0x00u, 0x00u, 0x00u, 0x00u, 0x00u, 0x00u, 0x00u, 0x00u, 0x00u, 0x00u, 0x00u, 
  73:.\Generated_Source\PSoC4/BLE_gatt.c ****         0x00u, 0x00u, 0x00u, 0x00u, 0x00u, 0x00u, 0x00u, 0x00u, 0x00u, 0x00u, 0x00u, 0x00u, 0x00u, 
  74:.\Generated_Source\PSoC4/BLE_gatt.c ****         0x00u, 0x00u, 0x00u, 0x00u, 0x00u, 0x00u, 0x00u, 0x00u, 0x00u, 0x00u, 0x00u, 0x00u, 0x00u, 
  75:.\Generated_Source\PSoC4/BLE_gatt.c ****         0x00u, 0x00u, 0x00u, 0x00u, 0x00u, 0x00u, 0x00u, 0x00u, 0x00u, 0x00u, 0x00u, 0x00u, 0x00u, 
  76:.\Generated_Source\PSoC4/BLE_gatt.c ****         0x00u, 0x00u, 0x00u, 0x00u, 0x00u, 0x00u, 0x00u, 0x00u, 0x00u, 0x00u, 0x00u, 0x00u, 0x00u, 
  77:.\Generated_Source\PSoC4/BLE_gatt.c ****         0x00u, 0x00u, 0x00u, 0x00u, 0x00u, 0x00u, 0x00u, 0x00u, 0x00u, 0x00u, 0x00u, 0x00u, 0x00u, 
  78:.\Generated_Source\PSoC4/BLE_gatt.c ****         0x00u, 0x00u, 0x00u, 0x00u, 0x00u, 0x00u, 0x00u, 0x00u, 0x00u, 0x00u, 0x00u, 0x00u, 0x00u, 
  79:.\Generated_Source\PSoC4/BLE_gatt.c ****         0x00u, 0x00u, 0x00u, 0x00u, 0x00u, 0x00u, 0x00u, 0x00u, 0x00u, 0x00u }, 
  80:.\Generated_Source\PSoC4/BLE_gatt.c ****         {{
  81:.\Generated_Source\PSoC4/BLE_gatt.c ****             0x00u, 0x00u, 
  82:.\Generated_Source\PSoC4/BLE_gatt.c ****         },
  83:.\Generated_Source\PSoC4/BLE_gatt.c ****         {
  84:.\Generated_Source\PSoC4/BLE_gatt.c ****             0x00u, 0x00u, 
  85:.\Generated_Source\PSoC4/BLE_gatt.c ****         },
  86:.\Generated_Source\PSoC4/BLE_gatt.c ****         {
  87:.\Generated_Source\PSoC4/BLE_gatt.c ****             0x00u, 0x00u, 
  88:.\Generated_Source\PSoC4/BLE_gatt.c ****         },
  89:.\Generated_Source\PSoC4/BLE_gatt.c ****         {
  90:.\Generated_Source\PSoC4/BLE_gatt.c ****             0x00u, 0x00u, 
  91:.\Generated_Source\PSoC4/BLE_gatt.c ****         },
  92:.\Generated_Source\PSoC4/BLE_gatt.c ****         {
  93:.\Generated_Source\PSoC4/BLE_gatt.c ****             0x00u, 0x00u, 
  94:.\Generated_Source\PSoC4/BLE_gatt.c ****         }}, 
  95:.\Generated_Source\PSoC4/BLE_gatt.c ****         0x02u, /* CYBLE_GATT_DB_CCCD_COUNT */ 
  96:.\Generated_Source\PSoC4/BLE_gatt.c ****         0x05u, /* CYBLE_GAP_MAX_BONDED_DEVICE */ 
  97:.\Generated_Source\PSoC4/BLE_gatt.c ****     };
  98:.\Generated_Source\PSoC4/BLE_gatt.c **** #endif /* (CYBLE_MODE_PROFILE) */
  99:.\Generated_Source\PSoC4/BLE_gatt.c **** 
 100:.\Generated_Source\PSoC4/BLE_gatt.c **** #endif  /* (CYBLE_MODE_PROFILE) && (CYBLE_BONDING_REQUIREMENT == CYBLE_BONDING_YES) */
 101:.\Generated_Source\PSoC4/BLE_gatt.c **** 
 102:.\Generated_Source\PSoC4/BLE_gatt.c **** #if(CYBLE_GATT_ROLE_SERVER)
 103:.\Generated_Source\PSoC4/BLE_gatt.c ****     
 104:.\Generated_Source\PSoC4/BLE_gatt.c ****     const CYBLE_GATTS_T cyBle_gatts =
 105:.\Generated_Source\PSoC4/BLE_gatt.c **** {
 106:.\Generated_Source\PSoC4/BLE_gatt.c ****     0x000Au,    /* Handle of the GATT service */
 107:.\Generated_Source\PSoC4/BLE_gatt.c ****     0x000Cu,    /* Handle of the Service Changed characteristic */
 108:.\Generated_Source\PSoC4/BLE_gatt.c ****     0x000Du,    /* Handle of the Client Characteristic Configuration descriptor */
 109:.\Generated_Source\PSoC4/BLE_gatt.c **** };
 110:.\Generated_Source\PSoC4/BLE_gatt.c ****     
 111:.\Generated_Source\PSoC4/BLE_gatt.c ****     static uint8 cyBle_attValues[0x30u] = {
 112:.\Generated_Source\PSoC4/BLE_gatt.c ****     /* Device Name */
 113:.\Generated_Source\PSoC4/BLE_gatt.c ****     (uint8)'F', (uint8)'i', (uint8)'n', (uint8)'d', (uint8)' ', (uint8)'M', (uint8)'e', (uint8)' ',
 114:.\Generated_Source\PSoC4/BLE_gatt.c **** (uint8)'r', (uint8)'g', (uint8)'e', (uint8)'t', 
 115:.\Generated_Source\PSoC4/BLE_gatt.c **** 
 116:.\Generated_Source\PSoC4/BLE_gatt.c ****     /* Appearance */
 117:.\Generated_Source\PSoC4/BLE_gatt.c ****     0x40u, 0x02u, 
 118:.\Generated_Source\PSoC4/BLE_gatt.c **** 
 119:.\Generated_Source\PSoC4/BLE_gatt.c ****     /* Peripheral Preferred Connection Parameters */
 120:.\Generated_Source\PSoC4/BLE_gatt.c ****     0x06u, 0x00u, 0x28u, 0x00u, 0x00u, 0x00u, 0xE8u, 0x03u, 
 121:.\Generated_Source\PSoC4/BLE_gatt.c **** 
 122:.\Generated_Source\PSoC4/BLE_gatt.c ****     /* Central Address Resolution */
 123:.\Generated_Source\PSoC4/BLE_gatt.c ****     0x00u, 
 124:.\Generated_Source\PSoC4/BLE_gatt.c **** 
ARM GAS  C:\Users\zpstrwy\AppData\Local\Temp\ccHssAFB.s 			page 9


 125:.\Generated_Source\PSoC4/BLE_gatt.c ****     /* Service Changed */
 126:.\Generated_Source\PSoC4/BLE_gatt.c ****     0x00u, 0x00u, 0x00u, 0x00u, 
 127:.\Generated_Source\PSoC4/BLE_gatt.c **** 
 128:.\Generated_Source\PSoC4/BLE_gatt.c ****     /* Alert Level */
 129:.\Generated_Source\PSoC4/BLE_gatt.c ****     0x00u, 
 130:.\Generated_Source\PSoC4/BLE_gatt.c **** 
 131:.\Generated_Source\PSoC4/BLE_gatt.c ****     /* Custom Characteristic */
 132:.\Generated_Source\PSoC4/BLE_gatt.c ****     0x00u, 
 133:.\Generated_Source\PSoC4/BLE_gatt.c **** 
 134:.\Generated_Source\PSoC4/BLE_gatt.c ****     /* Custom Descriptor */
 135:.\Generated_Source\PSoC4/BLE_gatt.c ****     0x00u, 0xFBu, 0x34u, 0x9Bu, 0x5Fu, 0x80u, 0x00u, 0x00u, 0x80u, 0x00u, 0x10u, 0x00u, 0x00u, 0x00
 136:.\Generated_Source\PSoC4/BLE_gatt.c **** 
 137:.\Generated_Source\PSoC4/BLE_gatt.c **** };
 138:.\Generated_Source\PSoC4/BLE_gatt.c **** #if(CYBLE_GATT_DB_CCCD_COUNT != 0u)
 139:.\Generated_Source\PSoC4/BLE_gatt.c **** uint8 cyBle_attValuesCCCD[CYBLE_GATT_DB_CCCD_COUNT];
 140:.\Generated_Source\PSoC4/BLE_gatt.c **** #endif /* CYBLE_GATT_DB_CCCD_COUNT != 0u */
 141:.\Generated_Source\PSoC4/BLE_gatt.c **** 
 142:.\Generated_Source\PSoC4/BLE_gatt.c **** const uint8 cyBle_attUuid128[][16u] = {
 143:.\Generated_Source\PSoC4/BLE_gatt.c ****     /* Custom Service */
 144:.\Generated_Source\PSoC4/BLE_gatt.c ****     { 0xFBu, 0x34u, 0x9Bu, 0x5Fu, 0x80u, 0x00u, 0x00u, 0x80u, 0x00u, 0x10u, 0x00u, 0x00u, 0x00u, 0x
 145:.\Generated_Source\PSoC4/BLE_gatt.c ****     /* Custom Characteristic */
 146:.\Generated_Source\PSoC4/BLE_gatt.c ****     { 0xFBu, 0x34u, 0x9Bu, 0x5Fu, 0x80u, 0x00u, 0x00u, 0x80u, 0x00u, 0x10u, 0x00u, 0x00u, 0x00u, 0x
 147:.\Generated_Source\PSoC4/BLE_gatt.c **** };
 148:.\Generated_Source\PSoC4/BLE_gatt.c **** 
 149:.\Generated_Source\PSoC4/BLE_gatt.c **** CYBLE_GATTS_ATT_GEN_VAL_LEN_T cyBle_attValuesLen[CYBLE_GATT_DB_ATT_VAL_COUNT] = {
 150:.\Generated_Source\PSoC4/BLE_gatt.c ****     { 0x000Eu, (void *)&cyBle_attValues[0] }, /* Device Name */
 151:.\Generated_Source\PSoC4/BLE_gatt.c ****     { 0x0002u, (void *)&cyBle_attValues[14] }, /* Appearance */
 152:.\Generated_Source\PSoC4/BLE_gatt.c ****     { 0x0008u, (void *)&cyBle_attValues[16] }, /* Peripheral Preferred Connection Parameters */
 153:.\Generated_Source\PSoC4/BLE_gatt.c ****     { 0x0001u, (void *)&cyBle_attValues[24] }, /* Central Address Resolution */
 154:.\Generated_Source\PSoC4/BLE_gatt.c ****     { 0x0004u, (void *)&cyBle_attValues[25] }, /* Service Changed */
 155:.\Generated_Source\PSoC4/BLE_gatt.c ****     { 0x0002u, (void *)&cyBle_attValuesCCCD[0] }, /* Client Characteristic Configuration */
 156:.\Generated_Source\PSoC4/BLE_gatt.c ****     { 0x0001u, (void *)&cyBle_attValues[29] }, /* Alert Level */
 157:.\Generated_Source\PSoC4/BLE_gatt.c ****     { 0x0010u, (void *)&cyBle_attUuid128[0] }, /* Custom Service UUID */
 158:.\Generated_Source\PSoC4/BLE_gatt.c ****     { 0x0010u, (void *)&cyBle_attUuid128[1] }, /* Custom Characteristic UUID */
 159:.\Generated_Source\PSoC4/BLE_gatt.c ****     { 0x0001u, (void *)&cyBle_attValues[30] }, /* Custom Characteristic */
 160:.\Generated_Source\PSoC4/BLE_gatt.c ****     { 0x0001u, (void *)&cyBle_attValues[31] }, /* Custom Descriptor */
 161:.\Generated_Source\PSoC4/BLE_gatt.c **** };
 162:.\Generated_Source\PSoC4/BLE_gatt.c **** 
 163:.\Generated_Source\PSoC4/BLE_gatt.c **** const CYBLE_GATTS_DB_T cyBle_gattDB[0x14u] = {
 164:.\Generated_Source\PSoC4/BLE_gatt.c ****     { 0x0001u, 0x2800u /* Primary service                     */, 0x00000001u /*       */, 0x0009u,
 165:.\Generated_Source\PSoC4/BLE_gatt.c ****     { 0x0002u, 0x2803u /* Characteristic                      */, 0x00000201u /* rd    */, 0x0003u,
 166:.\Generated_Source\PSoC4/BLE_gatt.c ****     { 0x0003u, 0x2A00u /* Device Name                         */, 0x00000201u /* rd    */, 0x0003u,
 167:.\Generated_Source\PSoC4/BLE_gatt.c ****     { 0x0004u, 0x2803u /* Characteristic                      */, 0x00000201u /* rd    */, 0x0005u,
 168:.\Generated_Source\PSoC4/BLE_gatt.c ****     { 0x0005u, 0x2A01u /* Appearance                          */, 0x00000201u /* rd    */, 0x0005u,
 169:.\Generated_Source\PSoC4/BLE_gatt.c ****     { 0x0006u, 0x2803u /* Characteristic                      */, 0x00000201u /* rd    */, 0x0007u,
 170:.\Generated_Source\PSoC4/BLE_gatt.c ****     { 0x0007u, 0x2A04u /* Peripheral Preferred Connection Par */, 0x00000201u /* rd    */, 0x0007u,
 171:.\Generated_Source\PSoC4/BLE_gatt.c ****     { 0x0008u, 0x2803u /* Characteristic                      */, 0x00000201u /* rd    */, 0x0009u,
 172:.\Generated_Source\PSoC4/BLE_gatt.c ****     { 0x0009u, 0x2AA6u /* Central Address Resolution          */, 0x00000201u /* rd    */, 0x0009u,
 173:.\Generated_Source\PSoC4/BLE_gatt.c ****     { 0x000Au, 0x2800u /* Primary service                     */, 0x00000001u /*       */, 0x000Du,
 174:.\Generated_Source\PSoC4/BLE_gatt.c ****     { 0x000Bu, 0x2803u /* Characteristic                      */, 0x00002001u /* ind   */, 0x000Du,
 175:.\Generated_Source\PSoC4/BLE_gatt.c ****     { 0x000Cu, 0x2A05u /* Service Changed                     */, 0x00002000u /* ind   */, 0x000Du,
 176:.\Generated_Source\PSoC4/BLE_gatt.c ****     { 0x000Du, 0x2902u /* Client Characteristic Configuration */, 0x00000A04u /* rd,wr */, 0x000Du,
 177:.\Generated_Source\PSoC4/BLE_gatt.c ****     { 0x000Eu, 0x2800u /* Primary service                     */, 0x00000001u /*       */, 0x0010u,
 178:.\Generated_Source\PSoC4/BLE_gatt.c ****     { 0x000Fu, 0x2803u /* Characteristic                      */, 0x00000401u /* wwr   */, 0x0010u,
 179:.\Generated_Source\PSoC4/BLE_gatt.c ****     { 0x0010u, 0x2A06u /* Alert Level                         */, 0x00000402u /* wwr   */, 0x0010u,
 180:.\Generated_Source\PSoC4/BLE_gatt.c ****     { 0x0011u, 0x2800u /* Primary service                     */, 0x00080001u /*       */, 0x0014u,
 181:.\Generated_Source\PSoC4/BLE_gatt.c ****     { 0x0012u, 0x2803u /* Characteristic                      */, 0x00000401u /* wwr   */, 0x0014u,
ARM GAS  C:\Users\zpstrwy\AppData\Local\Temp\ccHssAFB.s 			page 10


 182:.\Generated_Source\PSoC4/BLE_gatt.c ****     { 0x0013u, 0x0000u /* Custom Characteristic               */, 0x00090402u /* wwr   */, 0x0014u,
 183:.\Generated_Source\PSoC4/BLE_gatt.c ****     { 0x0014u, 0x0000u /* Custom Descriptor                   */, 0x00090004u /*       */, 0x0014u,
 184:.\Generated_Source\PSoC4/BLE_gatt.c **** };
 185:.\Generated_Source\PSoC4/BLE_gatt.c **** 
 186:.\Generated_Source\PSoC4/BLE_gatt.c **** 
 187:.\Generated_Source\PSoC4/BLE_gatt.c **** #endif /* (CYBLE_GATT_ROLE_SERVER) */
 188:.\Generated_Source\PSoC4/BLE_gatt.c **** 
 189:.\Generated_Source\PSoC4/BLE_gatt.c **** #if(CYBLE_GATT_ROLE_CLIENT)
 190:.\Generated_Source\PSoC4/BLE_gatt.c ****     
 191:.\Generated_Source\PSoC4/BLE_gatt.c **** CYBLE_CLIENT_STATE_T cyBle_clientState;
 192:.\Generated_Source\PSoC4/BLE_gatt.c **** CYBLE_GATTC_T cyBle_gattc;
 193:.\Generated_Source\PSoC4/BLE_gatt.c **** CYBLE_GATT_ATTR_HANDLE_RANGE_T cyBle_gattcDiscoveryRange;
 194:.\Generated_Source\PSoC4/BLE_gatt.c ****     
 195:.\Generated_Source\PSoC4/BLE_gatt.c **** #endif /* (CYBLE_GATT_ROLE_CLIENT) */
 196:.\Generated_Source\PSoC4/BLE_gatt.c **** 
 197:.\Generated_Source\PSoC4/BLE_gatt.c **** 
 198:.\Generated_Source\PSoC4/BLE_gatt.c **** #if(CYBLE_GATT_ROLE_SERVER)
 199:.\Generated_Source\PSoC4/BLE_gatt.c **** 
 200:.\Generated_Source\PSoC4/BLE_gatt.c **** /****************************************************************************** 
 201:.\Generated_Source\PSoC4/BLE_gatt.c **** * Function Name: CyBle_GattsReInitGattDb
 202:.\Generated_Source\PSoC4/BLE_gatt.c **** ***************************************************************************//**
 203:.\Generated_Source\PSoC4/BLE_gatt.c **** * 
 204:.\Generated_Source\PSoC4/BLE_gatt.c **** *  Reinitializes the GATT database.
 205:.\Generated_Source\PSoC4/BLE_gatt.c **** * 
 206:.\Generated_Source\PSoC4/BLE_gatt.c **** *  \return
 207:.\Generated_Source\PSoC4/BLE_gatt.c **** *  CYBLE_API_RESULT_T: An API result states if the API succeeded or failed with
 208:.\Generated_Source\PSoC4/BLE_gatt.c **** *  error codes:
 209:.\Generated_Source\PSoC4/BLE_gatt.c **** 
 210:.\Generated_Source\PSoC4/BLE_gatt.c **** *  Errors codes                          | Description
 211:.\Generated_Source\PSoC4/BLE_gatt.c **** *  ------------                          | -----------
 212:.\Generated_Source\PSoC4/BLE_gatt.c **** *  CYBLE_ERROR_OK						 | GATT database was reinitialized successfully.
 213:.\Generated_Source\PSoC4/BLE_gatt.c **** *  CYBLE_ERROR_INVALID_STATE             | If the function is called in any state except CYBLE_STAT
 214:.\Generated_Source\PSoC4/BLE_gatt.c **** *  CYBLE_ERROR_INVALID_PARAMETER         | If the Database has zero entries or is a NULL pointer.
 215:.\Generated_Source\PSoC4/BLE_gatt.c **** * 
 216:.\Generated_Source\PSoC4/BLE_gatt.c **** ******************************************************************************/
 217:.\Generated_Source\PSoC4/BLE_gatt.c **** CYBLE_API_RESULT_T CyBle_GattsReInitGattDb(void)
 218:.\Generated_Source\PSoC4/BLE_gatt.c **** {
 333              		.loc 1 218 0
 334              		.cfi_startproc
 335 0000 90B5     		push	{r4, r7, lr}
 336              		.cfi_def_cfa_offset 12
 337              		.cfi_offset 4, -12
 338              		.cfi_offset 7, -8
 339              		.cfi_offset 14, -4
 340 0002 83B0     		sub	sp, sp, #12
 341              		.cfi_def_cfa_offset 24
 342 0004 00AF     		add	r7, sp, #0
 343              		.cfi_def_cfa_register 7
 219:.\Generated_Source\PSoC4/BLE_gatt.c ****     CYBLE_API_RESULT_T apiResult;
 220:.\Generated_Source\PSoC4/BLE_gatt.c ****     
 221:.\Generated_Source\PSoC4/BLE_gatt.c ****     if(CYBLE_STATE_DISCONNECTED == CyBle_GetState())
 344              		.loc 1 221 0
 345 0006 0C4B     		ldr	r3, .L5
 346 0008 1B78     		ldrb	r3, [r3]
 347 000a 042B     		cmp	r3, #4
 348 000c 09D1     		bne	.L2
 222:.\Generated_Source\PSoC4/BLE_gatt.c ****     {
ARM GAS  C:\Users\zpstrwy\AppData\Local\Temp\ccHssAFB.s 			page 11


 223:.\Generated_Source\PSoC4/BLE_gatt.c ****         apiResult = CyBle_GattsDbRegister(cyBle_gattDB, CYBLE_GATT_DB_INDEX_COUNT, CYBLE_GATT_DB_MA
 349              		.loc 1 223 0
 350 000e BC1D     		add	r4, r7, #6
 351 0010 0A4B     		ldr	r3, .L5+4
 352 0012 181C     		mov	r0, r3
 353 0014 1421     		mov	r1, #20
 354 0016 0E22     		mov	r2, #14
 355 0018 FFF7FEFF 		bl	CyBle_GattsDbRegister
 356 001c 031C     		mov	r3, r0
 357 001e 2380     		strh	r3, [r4]
 358 0020 03E0     		b	.L3
 359              	.L2:
 224:.\Generated_Source\PSoC4/BLE_gatt.c ****     }
 225:.\Generated_Source\PSoC4/BLE_gatt.c ****     else
 226:.\Generated_Source\PSoC4/BLE_gatt.c ****     {
 227:.\Generated_Source\PSoC4/BLE_gatt.c ****         apiResult = CYBLE_ERROR_INVALID_STATE;
 360              		.loc 1 227 0
 361 0022 BB1D     		add	r3, r7, #6
 362 0024 0422     		mov	r2, #4
 363 0026 FF32     		add	r2, r2, #255
 364 0028 1A80     		strh	r2, [r3]
 365              	.L3:
 228:.\Generated_Source\PSoC4/BLE_gatt.c ****     }
 229:.\Generated_Source\PSoC4/BLE_gatt.c ****     
 230:.\Generated_Source\PSoC4/BLE_gatt.c ****     return(apiResult);
 366              		.loc 1 230 0
 367 002a BB1D     		add	r3, r7, #6
 368 002c 1B88     		ldrh	r3, [r3]
 231:.\Generated_Source\PSoC4/BLE_gatt.c **** }
 369              		.loc 1 231 0
 370 002e 181C     		mov	r0, r3
 371 0030 BD46     		mov	sp, r7
 372 0032 03B0     		add	sp, sp, #12
 373              		@ sp needed
 374 0034 90BD     		pop	{r4, r7, pc}
 375              	.L6:
 376 0036 C046     		.align	2
 377              	.L5:
 378 0038 00000000 		.word	cyBle_state
 379 003c 00000000 		.word	cyBle_gattDB
 380              		.cfi_endproc
 381              	.LFE2:
 382              		.size	CyBle_GattsReInitGattDb, .-CyBle_GattsReInitGattDb
 383              		.section	.text.CyBle_GattsWriteEventHandler,"ax",%progbits
 384              		.align	2
 385              		.global	CyBle_GattsWriteEventHandler
 386              		.code	16
 387              		.thumb_func
 388              		.type	CyBle_GattsWriteEventHandler, %function
 389              	CyBle_GattsWriteEventHandler:
 390              	.LFB3:
 232:.\Generated_Source\PSoC4/BLE_gatt.c **** 
 233:.\Generated_Source\PSoC4/BLE_gatt.c **** 
 234:.\Generated_Source\PSoC4/BLE_gatt.c **** /****************************************************************************** 
 235:.\Generated_Source\PSoC4/BLE_gatt.c **** * Function Name: CyBle_GattsWriteEventHandler
 236:.\Generated_Source\PSoC4/BLE_gatt.c **** ***************************************************************************//**
 237:.\Generated_Source\PSoC4/BLE_gatt.c **** * 
ARM GAS  C:\Users\zpstrwy\AppData\Local\Temp\ccHssAFB.s 			page 12


 238:.\Generated_Source\PSoC4/BLE_gatt.c **** *  Handles the Write Request Event for GATT service.
 239:.\Generated_Source\PSoC4/BLE_gatt.c **** * 
 240:.\Generated_Source\PSoC4/BLE_gatt.c **** *  \param eventParam: The pointer to the data structure specified by the event.
 241:.\Generated_Source\PSoC4/BLE_gatt.c **** * 
 242:.\Generated_Source\PSoC4/BLE_gatt.c **** *  \return
 243:.\Generated_Source\PSoC4/BLE_gatt.c **** *  CYBLE_GATT_ERR_CODE_T: An API result returns one of the following status 
 244:.\Generated_Source\PSoC4/BLE_gatt.c **** *  values.
 245:.\Generated_Source\PSoC4/BLE_gatt.c **** 
 246:.\Generated_Source\PSoC4/BLE_gatt.c **** *  Errors codes                          | Description
 247:.\Generated_Source\PSoC4/BLE_gatt.c **** *  --------------------                  | -----------
 248:.\Generated_Source\PSoC4/BLE_gatt.c **** *  CYBLE_GATT_ERR_NONE                   | Write is successful.
 249:.\Generated_Source\PSoC4/BLE_gatt.c **** * 
 250:.\Generated_Source\PSoC4/BLE_gatt.c **** ******************************************************************************/
 251:.\Generated_Source\PSoC4/BLE_gatt.c **** CYBLE_GATT_ERR_CODE_T CyBle_GattsWriteEventHandler(CYBLE_GATTS_WRITE_REQ_PARAM_T *eventParam)
 252:.\Generated_Source\PSoC4/BLE_gatt.c **** {
 391              		.loc 1 252 0
 392              		.cfi_startproc
 393 0000 90B5     		push	{r4, r7, lr}
 394              		.cfi_def_cfa_offset 12
 395              		.cfi_offset 4, -12
 396              		.cfi_offset 7, -8
 397              		.cfi_offset 14, -4
 398 0002 85B0     		sub	sp, sp, #20
 399              		.cfi_def_cfa_offset 32
 400 0004 00AF     		add	r7, sp, #0
 401              		.cfi_def_cfa_register 7
 402 0006 7860     		str	r0, [r7, #4]
 253:.\Generated_Source\PSoC4/BLE_gatt.c ****     CYBLE_GATT_ERR_CODE_T gattErr = CYBLE_GATT_ERR_NONE;
 403              		.loc 1 253 0
 404 0008 0F23     		mov	r3, #15
 405 000a FB18     		add	r3, r7, r3
 406 000c 0022     		mov	r2, #0
 407 000e 1A70     		strb	r2, [r3]
 254:.\Generated_Source\PSoC4/BLE_gatt.c ****     
 255:.\Generated_Source\PSoC4/BLE_gatt.c ****     /* Client Characteristic Configuration descriptor write request */
 256:.\Generated_Source\PSoC4/BLE_gatt.c ****     if(eventParam->handleValPair.attrHandle == cyBle_gatts.cccdHandle)
 408              		.loc 1 256 0
 409 0010 7B68     		ldr	r3, [r7, #4]
 410 0012 9B89     		ldrh	r3, [r3, #12]
 411 0014 0D22     		mov	r2, #13
 412 0016 9342     		cmp	r3, r2
 413 0018 37D1     		bne	.L8
 257:.\Generated_Source\PSoC4/BLE_gatt.c ****     {
 258:.\Generated_Source\PSoC4/BLE_gatt.c ****         /* Store value to database */
 259:.\Generated_Source\PSoC4/BLE_gatt.c ****         gattErr = CyBle_GattsWriteAttributeValue(&eventParam->handleValPair, 0u, 
 414              		.loc 1 259 0
 415 001a 7B68     		ldr	r3, [r7, #4]
 416 001c 1A1D     		add	r2, r3, #4
 417 001e 7B68     		ldr	r3, [r7, #4]
 418 0020 0F21     		mov	r1, #15
 419 0022 7C18     		add	r4, r7, r1
 420 0024 101C     		mov	r0, r2
 421 0026 0021     		mov	r1, #0
 422 0028 1A1C     		mov	r2, r3
 423 002a 4023     		mov	r3, #64
 424 002c FFF7FEFF 		bl	CyBle_GattsWriteAttributeValue
 425 0030 031C     		mov	r3, r0
ARM GAS  C:\Users\zpstrwy\AppData\Local\Temp\ccHssAFB.s 			page 13


 426 0032 2370     		strb	r3, [r4]
 260:.\Generated_Source\PSoC4/BLE_gatt.c ****                         &eventParam->connHandle, CYBLE_GATT_DB_PEER_INITIATED);
 261:.\Generated_Source\PSoC4/BLE_gatt.c ****         
 262:.\Generated_Source\PSoC4/BLE_gatt.c ****         if(CYBLE_GATT_ERR_NONE == gattErr)
 427              		.loc 1 262 0
 428 0034 0F23     		mov	r3, #15
 429 0036 FB18     		add	r3, r7, r3
 430 0038 1B78     		ldrb	r3, [r3]
 431 003a 002B     		cmp	r3, #0
 432 003c 1DD1     		bne	.L9
 263:.\Generated_Source\PSoC4/BLE_gatt.c ****         {
 264:.\Generated_Source\PSoC4/BLE_gatt.c ****             if(CYBLE_IS_INDICATION_ENABLED_IN_PTR(eventParam->handleValPair.value.val))
 433              		.loc 1 264 0
 434 003e 7B68     		ldr	r3, [r7, #4]
 435 0040 5B68     		ldr	r3, [r3, #4]
 436 0042 181C     		mov	r0, r3
 437 0044 FFF7FEFF 		bl	CyBle_Get16ByPtr
 438 0048 031C     		mov	r3, r0
 439 004a 1A1C     		mov	r2, r3
 440 004c 0223     		mov	r3, #2
 441 004e 1340     		and	r3, r2
 442 0050 9BB2     		uxth	r3, r3
 443 0052 002B     		cmp	r3, #0
 444 0054 08D0     		beq	.L10
 265:.\Generated_Source\PSoC4/BLE_gatt.c ****             {
 266:.\Generated_Source\PSoC4/BLE_gatt.c ****                 CyBle_ApplCallback((uint32)CYBLE_EVT_GATTS_INDICATION_ENABLED, eventParam);
 445              		.loc 1 266 0
 446 0056 104B     		ldr	r3, .L12
 447 0058 1B68     		ldr	r3, [r3]
 448 005a 8222     		mov	r2, #130
 449 005c 5100     		lsl	r1, r2, #1
 450 005e 7A68     		ldr	r2, [r7, #4]
 451 0060 081C     		mov	r0, r1
 452 0062 111C     		mov	r1, r2
 453 0064 9847     		blx	r3
 454 0066 08E0     		b	.L9
 455              	.L10:
 267:.\Generated_Source\PSoC4/BLE_gatt.c ****             }
 268:.\Generated_Source\PSoC4/BLE_gatt.c ****             else
 269:.\Generated_Source\PSoC4/BLE_gatt.c ****             {
 270:.\Generated_Source\PSoC4/BLE_gatt.c ****                 CyBle_ApplCallback((uint32)CYBLE_EVT_GATTS_INDICATION_DISABLED, eventParam);
 456              		.loc 1 270 0
 457 0068 0B4B     		ldr	r3, .L12
 458 006a 1B68     		ldr	r3, [r3]
 459 006c 0622     		mov	r2, #6
 460 006e FF32     		add	r2, r2, #255
 461 0070 111C     		mov	r1, r2
 462 0072 7A68     		ldr	r2, [r7, #4]
 463 0074 081C     		mov	r0, r1
 464 0076 111C     		mov	r1, r2
 465 0078 9847     		blx	r3
 466              	.L9:
 271:.\Generated_Source\PSoC4/BLE_gatt.c ****             }
 272:.\Generated_Source\PSoC4/BLE_gatt.c ****         }
 273:.\Generated_Source\PSoC4/BLE_gatt.c ****         cyBle_eventHandlerFlag &= (uint8)~CYBLE_CALLBACK;
 467              		.loc 1 273 0
 468 007a 084B     		ldr	r3, .L12+4
ARM GAS  C:\Users\zpstrwy\AppData\Local\Temp\ccHssAFB.s 			page 14


 469 007c 1B78     		ldrb	r3, [r3]
 470 007e DBB2     		uxtb	r3, r3
 471 0080 0122     		mov	r2, #1
 472 0082 9343     		bic	r3, r2
 473 0084 DAB2     		uxtb	r2, r3
 474 0086 054B     		ldr	r3, .L12+4
 475 0088 1A70     		strb	r2, [r3]
 476              	.L8:
 274:.\Generated_Source\PSoC4/BLE_gatt.c ****     }
 275:.\Generated_Source\PSoC4/BLE_gatt.c ****     return (gattErr);
 477              		.loc 1 275 0
 478 008a 0F23     		mov	r3, #15
 479 008c FB18     		add	r3, r7, r3
 480 008e 1B78     		ldrb	r3, [r3]
 276:.\Generated_Source\PSoC4/BLE_gatt.c **** }
 481              		.loc 1 276 0
 482 0090 181C     		mov	r0, r3
 483 0092 BD46     		mov	sp, r7
 484 0094 05B0     		add	sp, sp, #20
 485              		@ sp needed
 486 0096 90BD     		pop	{r4, r7, pc}
 487              	.L13:
 488              		.align	2
 489              	.L12:
 490 0098 00000000 		.word	CyBle_ApplCallback
 491 009c 00000000 		.word	cyBle_eventHandlerFlag
 492              		.cfi_endproc
 493              	.LFE3:
 494              		.size	CyBle_GattsWriteEventHandler, .-CyBle_GattsWriteEventHandler
 495              		.text
 496              	.Letext0:
 497              		.file 2 ".\\Generated_Source\\PSoC4\\cytypes.h"
 498              		.file 3 ".\\Generated_Source\\PSoC4\\BLE_Stack.h"
 499              		.file 4 ".\\Generated_Source\\PSoC4\\BLE_StackGatt.h"
 500              		.file 5 ".\\Generated_Source\\PSoC4\\BLE_StackGattServer.h"
 501              		.file 6 ".\\Generated_Source\\PSoC4\\BLE_StackGattDb.h"
 502              		.file 7 ".\\Generated_Source\\PSoC4\\BLE.h"
 503              		.file 8 ".\\Generated_Source\\PSoC4\\BLE_gatt.h"
 504              		.file 9 ".\\Generated_Source\\PSoC4\\BLE_eventHandler.h"