ARM GAS  C:\Users\zpstrwy\AppData\Local\Temp\cci6Aiuc.s 			page 1


   1              		.cpu cortex-m0
   2              		.fpu softvfp
   3              		.eabi_attribute 20, 1
   4              		.eabi_attribute 21, 1
   5              		.eabi_attribute 23, 3
   6              		.eabi_attribute 24, 1
   7              		.eabi_attribute 25, 1
   8              		.eabi_attribute 26, 1
   9              		.eabi_attribute 30, 6
  10              		.eabi_attribute 34, 0
  11              		.eabi_attribute 18, 4
  12              		.code	16
  13              		.file	"ias.c"
  14              		.text
  15              	.Ltext0:
  16              		.cfi_sections	.debug_frame
  17              		.global	alertLevel
  18              		.bss
  19              		.type	alertLevel, %object
  20              		.size	alertLevel, 1
  21              	alertLevel:
  22 0000 00       		.space	1
  23              		.global	b_newcmd
  24              		.type	b_newcmd, %object
  25              		.size	b_newcmd, 1
  26              	b_newcmd:
  27 0001 00       		.space	1
  28              		.section	.text.IasEventHandler,"ax",%progbits
  29              		.align	2
  30              		.global	IasEventHandler
  31              		.code	16
  32              		.thumb_func
  33              		.type	IasEventHandler, %function
  34              	IasEventHandler:
  35              	.LFB37:
  36              		.file 1 ".\\ias.c"
   1:.\ias.c       **** /*******************************************************************************
   2:.\ias.c       **** * File Name: ias.c
   3:.\ias.c       **** *
   4:.\ias.c       **** * Description:
   5:.\ias.c       **** *  This file contains Immediate Alert Service callback handler function.
   6:.\ias.c       **** * 
   7:.\ias.c       **** ********************************************************************************
   8:.\ias.c       **** * Copyright 2015, Cypress Semiconductor Corporation.  All rights reserved.
   9:.\ias.c       **** * You may use this file only in accordance with the license, terms, conditions,
  10:.\ias.c       **** * disclaimers, and limitations in the end user license agreement accompanying
  11:.\ias.c       **** * the software package with which this file was provided.
  12:.\ias.c       **** *******************************************************************************/
  13:.\ias.c       **** 
  14:.\ias.c       **** #include <project.h>
  15:.\ias.c       **** #include "ias.h"
  16:.\ias.c       **** 
  17:.\ias.c       **** /* IAS alert level value */
  18:.\ias.c       **** uint8 alertLevel = 0;
  19:.\ias.c       **** 
  20:.\ias.c       **** /*******************************************************************************
  21:.\ias.c       **** * Function Name: IasEventHandler
ARM GAS  C:\Users\zpstrwy\AppData\Local\Temp\cci6Aiuc.s 			page 2


  22:.\ias.c       **** ********************************************************************************
  23:.\ias.c       **** *
  24:.\ias.c       **** * Summary:
  25:.\ias.c       **** *  This is an event callback function to receive events from the BLE Component,
  26:.\ias.c       **** *  which are specific to Immediate Alert Service.
  27:.\ias.c       **** *
  28:.\ias.c       **** * Parameters:
  29:.\ias.c       **** *  uint8 event:       Write Command event from the CYBLE component.
  30:.\ias.c       **** *  void* eventParams: A structure instance of CYBLE_GATT_HANDLE_VALUE_PAIR_T
  31:.\ias.c       **** *                     type.
  32:.\ias.c       **** *
  33:.\ias.c       **** * Return:
  34:.\ias.c       **** *  None
  35:.\ias.c       **** *
  36:.\ias.c       **** *******************************************************************************/
  37:.\ias.c       **** uint8 b_newcmd = 0;
  38:.\ias.c       **** void IasEventHandler(uint32 event, void *eventParam)
  39:.\ias.c       **** {
  37              		.loc 1 39 0
  38              		.cfi_startproc
  39 0000 80B5     		push	{r7, lr}
  40              		.cfi_def_cfa_offset 8
  41              		.cfi_offset 7, -8
  42              		.cfi_offset 14, -4
  43 0002 82B0     		sub	sp, sp, #8
  44              		.cfi_def_cfa_offset 16
  45 0004 00AF     		add	r7, sp, #0
  46              		.cfi_def_cfa_register 7
  47 0006 7860     		str	r0, [r7, #4]
  48 0008 3960     		str	r1, [r7]
  40:.\ias.c       ****     /* Alert Level Characteristic write event */
  41:.\ias.c       ****     if(event == CYBLE_EVT_IASS_WRITE_CHAR_CMD)
  49              		.loc 1 41 0
  50 000a 7A68     		ldr	r2, [r7, #4]
  51 000c D823     		mov	r3, #216
  52 000e 5B00     		lsl	r3, r3, #1
  53 0010 9A42     		cmp	r2, r3
  54 0012 08D1     		bne	.L2
  42:.\ias.c       ****     {
  43:.\ias.c       ****         /* Read the updated Alert Level value from the GATT database */
  44:.\ias.c       ****     CyBle_IassGetCharacteristicValue(CYBLE_IAS_ALERT_LEVEL, 
  55              		.loc 1 44 0
  56 0014 144B     		ldr	r3, .L14
  57 0016 0020     		mov	r0, #0
  58 0018 0121     		mov	r1, #1
  59 001a 1A1C     		mov	r2, r3
  60 001c FFF7FEFF 		bl	CyBle_IassGetCharacteristicValue
  45:.\ias.c       ****            sizeof(alertLevel), &alertLevel);
  46:.\ias.c       ****         b_newcmd = 1;
  61              		.loc 1 46 0
  62 0020 124B     		ldr	r3, .L14+4
  63 0022 0122     		mov	r2, #1
  64 0024 1A70     		strb	r2, [r3]
  65              	.L2:
  47:.\ias.c       ****     }
  48:.\ias.c       ****     switch(event)
  66              		.loc 1 48 0
ARM GAS  C:\Users\zpstrwy\AppData\Local\Temp\cci6Aiuc.s 			page 3


  67 0026 7B68     		ldr	r3, [r7, #4]
  68 0028 9322     		mov	r2, #147
  69 002a 5200     		lsl	r2, r2, #1
  70 002c 9342     		cmp	r3, r2
  71 002e 11D0     		beq	.L10
  72 0030 9322     		mov	r2, #147
  73 0032 5200     		lsl	r2, r2, #1
  74 0034 9342     		cmp	r3, r2
  75 0036 04D8     		bhi	.L5
  76 0038 2622     		mov	r2, #38
  77 003a FF32     		add	r2, r2, #255
  78 003c 9342     		cmp	r3, r2
  79 003e 0BD0     		beq	.L11
  49:.\ias.c       ****     {
  50:.\ias.c       **** 		case CYBLE_EVT_BASC_WRITE_DESCR_RESPONSE:
  51:.\ias.c       ****             break;
  52:.\ias.c       ****         case CYBLE_EVT_BASC_NOTIFICATION:
  53:.\ias.c       ****             break;
  54:.\ias.c       ****         case CYBLE_EVT_BASC_READ_CHAR_RESPONSE:
  55:.\ias.c       ****             break;
  56:.\ias.c       ****         case CYBLE_EVT_BASC_READ_DESCR_RESPONSE:
  57:.\ias.c       ****             break;
  58:.\ias.c       ****         default:
  59:.\ias.c       ****             break;    	
  80              		.loc 1 59 0
  81 0040 0FE0     		b	.L1
  82              	.L5:
  48:.\ias.c       ****     {
  83              		.loc 1 48 0
  84 0042 2822     		mov	r2, #40
  85 0044 FF32     		add	r2, r2, #255
  86 0046 9342     		cmp	r3, r2
  87 0048 08D0     		beq	.L12
  88 004a 9422     		mov	r2, #148
  89 004c 5200     		lsl	r2, r2, #1
  90 004e 9342     		cmp	r3, r2
  91 0050 06D0     		beq	.L13
  92              		.loc 1 59 0
  93 0052 06E0     		b	.L1
  94              	.L10:
  55:.\ias.c       ****         case CYBLE_EVT_BASC_READ_DESCR_RESPONSE:
  95              		.loc 1 55 0
  96 0054 C046     		mov	r8, r8
  97 0056 04E0     		b	.L1
  98              	.L11:
  53:.\ias.c       ****         case CYBLE_EVT_BASC_READ_CHAR_RESPONSE:
  99              		.loc 1 53 0
 100 0058 C046     		mov	r8, r8
 101 005a 02E0     		b	.L1
 102              	.L12:
  57:.\ias.c       ****         default:
 103              		.loc 1 57 0
 104 005c C046     		mov	r8, r8
 105 005e 00E0     		b	.L1
 106              	.L13:
  51:.\ias.c       ****         case CYBLE_EVT_BASC_NOTIFICATION:
 107              		.loc 1 51 0
ARM GAS  C:\Users\zpstrwy\AppData\Local\Temp\cci6Aiuc.s 			page 4


 108 0060 C046     		mov	r8, r8
 109              	.L1:
  60:.\ias.c       ****     }
  61:.\ias.c       ****   		
  62:.\ias.c       **** }
 110              		.loc 1 62 0
 111 0062 BD46     		mov	sp, r7
 112 0064 02B0     		add	sp, sp, #8
 113              		@ sp needed
 114 0066 80BD     		pop	{r7, pc}
 115              	.L15:
 116              		.align	2
 117              	.L14:
 118 0068 00000000 		.word	alertLevel
 119 006c 00000000 		.word	b_newcmd
 120              		.cfi_endproc
 121              	.LFE37:
 122              		.size	IasEventHandler, .-IasEventHandler
 123              		.section	.text.Sys_GetCmd,"ax",%progbits
 124              		.align	2
 125              		.global	Sys_GetCmd
 126              		.code	16
 127              		.thumb_func
 128              		.type	Sys_GetCmd, %function
 129              	Sys_GetCmd:
 130              	.LFB38:
  63:.\ias.c       **** 
  64:.\ias.c       **** uint8 Sys_GetCmd(void)
  65:.\ias.c       **** {
 131              		.loc 1 65 0
 132              		.cfi_startproc
 133 0000 80B5     		push	{r7, lr}
 134              		.cfi_def_cfa_offset 8
 135              		.cfi_offset 7, -8
 136              		.cfi_offset 14, -4
 137 0002 00AF     		add	r7, sp, #0
 138              		.cfi_def_cfa_register 7
  66:.\ias.c       **** 	if(b_newcmd)
 139              		.loc 1 66 0
 140 0004 064B     		ldr	r3, .L19
 141 0006 1B78     		ldrb	r3, [r3]
 142 0008 002B     		cmp	r3, #0
 143 000a 05D0     		beq	.L17
  67:.\ias.c       **** 	{
  68:.\ias.c       **** 		b_newcmd = 0;
 144              		.loc 1 68 0
 145 000c 044B     		ldr	r3, .L19
 146 000e 0022     		mov	r2, #0
 147 0010 1A70     		strb	r2, [r3]
  69:.\ias.c       **** 		return alertLevel;
 148              		.loc 1 69 0
 149 0012 044B     		ldr	r3, .L19+4
 150 0014 1B78     		ldrb	r3, [r3]
 151 0016 FFE7     		b	.L16
 152              	.L17:
 153              	.L16:
  70:.\ias.c       **** 	}
ARM GAS  C:\Users\zpstrwy\AppData\Local\Temp\cci6Aiuc.s 			page 5


  71:.\ias.c       **** }
 154              		.loc 1 71 0
 155 0018 181C     		mov	r0, r3
 156 001a BD46     		mov	sp, r7
 157              		@ sp needed
 158 001c 80BD     		pop	{r7, pc}
 159              	.L20:
 160 001e C046     		.align	2
 161              	.L19:
 162 0020 00000000 		.word	b_newcmd
 163 0024 00000000 		.word	alertLevel
 164              		.cfi_endproc
 165              	.LFE38:
 166              		.size	Sys_GetCmd, .-Sys_GetCmd
 167              		.text
 168              	.Letext0:
 169              		.file 2 "Generated_Source\\PSoC4/cytypes.h"
 170              		.file 3 "Generated_Source\\PSoC4/BLE_Stack.h"
 171              		.file 4 "Generated_Source\\PSoC4/BLE_ias.h"
 172              		.file 5 "Generated_Source\\PSoC4/BLE_eventHandler.h"