ARM GAS  C:\Users\zpstrwy\AppData\Local\Temp\cctNxVi3.s 			page 1


   1              		.cpu cortex-m0
   2              		.fpu softvfp
   3              		.eabi_attribute 20, 1
   4              		.eabi_attribute 21, 1
   5              		.eabi_attribute 23, 3
   6              		.eabi_attribute 24, 1
   7              		.eabi_attribute 25, 1
   8              		.eabi_attribute 26, 1
   9              		.eabi_attribute 30, 6
  10              		.eabi_attribute 34, 0
  11              		.eabi_attribute 18, 4
  12              		.code	16
  13              		.file	"IRCode.c"
  14              		.text
  15              	.Ltext0:
  16              		.cfi_sections	.debug_frame
  17              		.comm	gtag_ircode,12,4
  18              		.comm	decodemsg,128,4
  19              		.comm	decodemsg_len,1,1
  20              		.section	.text.Proc_SampDecodeData,"ax",%progbits
  21              		.align	2
  22              		.global	Proc_SampDecodeData
  23              		.code	16
  24              		.thumb_func
  25              		.type	Proc_SampDecodeData, %function
  26              	Proc_SampDecodeData:
  27              	.LFB37:
  28              		.file 1 ".\\IRCode.c"
   1:.\IRCode.c    **** #include <project.h>
   2:.\IRCode.c    **** #include "IRCode.h"
   3:.\IRCode.c    **** #include "CyFlash.h"
   4:.\IRCode.c    **** #include <stdlib.h>
   5:.\IRCode.c    **** #include <stdio.h>
   6:.\IRCode.c    **** #include <math.h>
   7:.\IRCode.c    **** 
   8:.\IRCode.c    **** volatile TAG_IRCODE gtag_ircode;
   9:.\IRCode.c    **** uint8 decodemsg[128];
  10:.\IRCode.c    **** uint8 decodemsg_len;
  11:.\IRCode.c    **** 
  12:.\IRCode.c    **** //解析红外解码
  13:.\IRCode.c    **** 
  14:.\IRCode.c    **** uint8 Proc_SampDecodeData(uint8 data)
  15:.\IRCode.c    **** {
  29              		.loc 1 15 0
  30              		.cfi_startproc
  31 0000 80B5     		push	{r7, lr}
  32              		.cfi_def_cfa_offset 8
  33              		.cfi_offset 7, -8
  34              		.cfi_offset 14, -4
  35 0002 84B0     		sub	sp, sp, #16
  36              		.cfi_def_cfa_offset 24
  37 0004 00AF     		add	r7, sp, #0
  38              		.cfi_def_cfa_register 7
  39 0006 021C     		mov	r2, r0
  40 0008 FB1D     		add	r3, r7, #7
  41 000a 1A70     		strb	r2, [r3]
  16:.\IRCode.c    **** 	static uint8 step = 0;
ARM GAS  C:\Users\zpstrwy\AppData\Local\Temp\cctNxVi3.s 			page 2


  17:.\IRCode.c    **** 	uint8 status = 0;
  42              		.loc 1 17 0
  43 000c 0F23     		mov	r3, #15
  44 000e FB18     		add	r3, r7, r3
  45 0010 0022     		mov	r2, #0
  46 0012 1A70     		strb	r2, [r3]
  18:.\IRCode.c    **** 	gtag_ircode.tick_50us ++; 
  47              		.loc 1 18 0
  48 0014 604B     		ldr	r3, .L18
  49 0016 9B68     		ldr	r3, [r3, #8]
  50 0018 5A1C     		add	r2, r3, #1
  51 001a 5F4B     		ldr	r3, .L18
  52 001c 9A60     		str	r2, [r3, #8]
  19:.\IRCode.c    **** 	if(gtag_ircode.IR_NewKeyflag)
  53              		.loc 1 19 0
  54 001e 5E4B     		ldr	r3, .L18
  55 0020 9B78     		ldrb	r3, [r3, #2]
  56 0022 DBB2     		uxtb	r3, r3
  57 0024 002B     		cmp	r3, #0
  58 0026 03D0     		beq	.L2
  20:.\IRCode.c    **** 		return status;
  59              		.loc 1 20 0
  60 0028 0F23     		mov	r3, #15
  61 002a FB18     		add	r3, r7, r3
  62 002c 1B78     		ldrb	r3, [r3]
  63 002e AEE0     		b	.L3
  64              	.L2:
  21:.\IRCode.c    **** 	switch(step)
  65              		.loc 1 21 0
  66 0030 5A4B     		ldr	r3, .L18+4
  67 0032 1B78     		ldrb	r3, [r3]
  68 0034 012B     		cmp	r3, #1
  69 0036 2ED0     		beq	.L5
  70 0038 022B     		cmp	r3, #2
  71 003a 5FD0     		beq	.L6
  72 003c 002B     		cmp	r3, #0
  73 003e 00D0     		beq	.L7
  22:.\IRCode.c    **** 	{
  23:.\IRCode.c    **** 		case 0:
  24:.\IRCode.c    **** 			if(data < gtag_ircode.IR_threshold )
  25:.\IRCode.c    **** 			{
  26:.\IRCode.c    **** 				
  27:.\IRCode.c    **** 				gtag_ircode.decode_delta ++;
  28:.\IRCode.c    **** 				if(gtag_ircode.decode_delta < 20)
  29:.\IRCode.c    **** 					break;
  30:.\IRCode.c    **** 				step ++;
  31:.\IRCode.c    **** 				decodemsg_len = 0;
  32:.\IRCode.c    **** 				status  = 1; 
  33:.\IRCode.c    **** 			}
  34:.\IRCode.c    **** 			else
  35:.\IRCode.c    **** 			{
  36:.\IRCode.c    **** 				gtag_ircode.decode_delta = 0;
  37:.\IRCode.c    **** 				status  = 0;
  38:.\IRCode.c    **** 			}
  39:.\IRCode.c    **** 			break;
  40:.\IRCode.c    **** 		case 1:   //开始计数  低电平
  41:.\IRCode.c    **** 			if(data < gtag_ircode.IR_threshold)
ARM GAS  C:\Users\zpstrwy\AppData\Local\Temp\cctNxVi3.s 			page 3


  42:.\IRCode.c    **** 			{
  43:.\IRCode.c    **** 				gtag_ircode.decode_delta ++;
  44:.\IRCode.c    **** 			}
  45:.\IRCode.c    **** 			else 
  46:.\IRCode.c    **** 			{
  47:.\IRCode.c    **** 				step++;
  48:.\IRCode.c    **** 				decodemsg[decodemsg_len++] = gtag_ircode.decode_delta;
  49:.\IRCode.c    **** 				gtag_ircode.decode_delta = 0;
  50:.\IRCode.c    **** 				if(decodemsg_len >= sizeof(decodemsg))
  51:.\IRCode.c    **** 				decodemsg_len = 0;
  52:.\IRCode.c    **** 			}
  53:.\IRCode.c    **** 			status  = 1;  
  54:.\IRCode.c    **** 			break;
  55:.\IRCode.c    **** 		case 2://开始计数  高电平
  56:.\IRCode.c    **** 			status  = 1;  
  57:.\IRCode.c    **** 			if(data >= gtag_ircode.IR_threshold )
  58:.\IRCode.c    **** 			{
  59:.\IRCode.c    **** 				gtag_ircode.decode_delta ++;
  60:.\IRCode.c    **** 				if(gtag_ircode.decode_delta > 250)
  61:.\IRCode.c    **** 				{
  62:.\IRCode.c    **** 					//按键存在
  63:.\IRCode.c    **** 					step = 0;
  64:.\IRCode.c    **** 					gtag_ircode.IR_NewKeyflag = 1;	
  65:.\IRCode.c    **** 					gtag_ircode.decode_delta = 0;
  66:.\IRCode.c    **** 					status  = 0;
  67:.\IRCode.c    **** 				}
  68:.\IRCode.c    **** 			}
  69:.\IRCode.c    **** 			else
  70:.\IRCode.c    **** 			{
  71:.\IRCode.c    **** 				step--;
  72:.\IRCode.c    **** 				decodemsg[decodemsg_len++] = gtag_ircode.decode_delta;
  73:.\IRCode.c    **** 				gtag_ircode.decode_delta = 0;
  74:.\IRCode.c    **** 				if(decodemsg_len >= sizeof(decodemsg))
  75:.\IRCode.c    **** 				decodemsg_len = 0;			
  76:.\IRCode.c    **** 			}
  77:.\IRCode.c    **** 			break;
  78:.\IRCode.c    **** 		
  79:.\IRCode.c    **** 			
  80:.\IRCode.c    **** 		
  81:.\IRCode.c    **** 		default:break;
  74              		.loc 1 81 0
  75 0040 A2E0     		b	.L10
  76              	.L7:
  24:.\IRCode.c    **** 			{
  77              		.loc 1 24 0
  78 0042 554B     		ldr	r3, .L18
  79 0044 1B78     		ldrb	r3, [r3]
  80 0046 DBB2     		uxtb	r3, r3
  81 0048 FA1D     		add	r2, r7, #7
  82 004a 1278     		ldrb	r2, [r2]
  83 004c 9A42     		cmp	r2, r3
  84 004e 1AD2     		bcs	.L8
  27:.\IRCode.c    **** 				if(gtag_ircode.decode_delta < 20)
  85              		.loc 1 27 0
  86 0050 514B     		ldr	r3, .L18
  87 0052 9B88     		ldrh	r3, [r3, #4]
  88 0054 9BB2     		uxth	r3, r3
ARM GAS  C:\Users\zpstrwy\AppData\Local\Temp\cctNxVi3.s 			page 4


  89 0056 0133     		add	r3, r3, #1
  90 0058 9AB2     		uxth	r2, r3
  91 005a 4F4B     		ldr	r3, .L18
  92 005c 9A80     		strh	r2, [r3, #4]
  28:.\IRCode.c    **** 					break;
  93              		.loc 1 28 0
  94 005e 4E4B     		ldr	r3, .L18
  95 0060 9B88     		ldrh	r3, [r3, #4]
  96 0062 9BB2     		uxth	r3, r3
  97 0064 132B     		cmp	r3, #19
  98 0066 00D8     		bhi	.L9
  29:.\IRCode.c    **** 				step ++;
  99              		.loc 1 29 0
 100 0068 8EE0     		b	.L10
 101              	.L9:
  30:.\IRCode.c    **** 				decodemsg_len = 0;
 102              		.loc 1 30 0
 103 006a 4C4B     		ldr	r3, .L18+4
 104 006c 1B78     		ldrb	r3, [r3]
 105 006e 0133     		add	r3, r3, #1
 106 0070 DAB2     		uxtb	r2, r3
 107 0072 4A4B     		ldr	r3, .L18+4
 108 0074 1A70     		strb	r2, [r3]
  31:.\IRCode.c    **** 				status  = 1; 
 109              		.loc 1 31 0
 110 0076 4A4B     		ldr	r3, .L18+8
 111 0078 0022     		mov	r2, #0
 112 007a 1A70     		strb	r2, [r3]
  32:.\IRCode.c    **** 			}
 113              		.loc 1 32 0
 114 007c 0F23     		mov	r3, #15
 115 007e FB18     		add	r3, r7, r3
 116 0080 0122     		mov	r2, #1
 117 0082 1A70     		strb	r2, [r3]
  39:.\IRCode.c    **** 		case 1:   //开始计数  低电平
 118              		.loc 1 39 0
 119 0084 80E0     		b	.L10
 120              	.L8:
  36:.\IRCode.c    **** 				status  = 0;
 121              		.loc 1 36 0
 122 0086 444B     		ldr	r3, .L18
 123 0088 0022     		mov	r2, #0
 124 008a 9A80     		strh	r2, [r3, #4]
  37:.\IRCode.c    **** 			}
 125              		.loc 1 37 0
 126 008c 0F23     		mov	r3, #15
 127 008e FB18     		add	r3, r7, r3
 128 0090 0022     		mov	r2, #0
 129 0092 1A70     		strb	r2, [r3]
  39:.\IRCode.c    **** 		case 1:   //开始计数  低电平
 130              		.loc 1 39 0
 131 0094 78E0     		b	.L10
 132              	.L5:
  41:.\IRCode.c    **** 			{
 133              		.loc 1 41 0
 134 0096 404B     		ldr	r3, .L18
 135 0098 1B78     		ldrb	r3, [r3]
ARM GAS  C:\Users\zpstrwy\AppData\Local\Temp\cctNxVi3.s 			page 5


 136 009a DBB2     		uxtb	r3, r3
 137 009c FA1D     		add	r2, r7, #7
 138 009e 1278     		ldrb	r2, [r2]
 139 00a0 9A42     		cmp	r2, r3
 140 00a2 07D2     		bcs	.L12
  43:.\IRCode.c    **** 			}
 141              		.loc 1 43 0
 142 00a4 3C4B     		ldr	r3, .L18
 143 00a6 9B88     		ldrh	r3, [r3, #4]
 144 00a8 9BB2     		uxth	r3, r3
 145 00aa 0133     		add	r3, r3, #1
 146 00ac 9AB2     		uxth	r2, r3
 147 00ae 3A4B     		ldr	r3, .L18
 148 00b0 9A80     		strh	r2, [r3, #4]
 149 00b2 1EE0     		b	.L13
 150              	.L12:
  47:.\IRCode.c    **** 				decodemsg[decodemsg_len++] = gtag_ircode.decode_delta;
 151              		.loc 1 47 0
 152 00b4 394B     		ldr	r3, .L18+4
 153 00b6 1B78     		ldrb	r3, [r3]
 154 00b8 0133     		add	r3, r3, #1
 155 00ba DAB2     		uxtb	r2, r3
 156 00bc 374B     		ldr	r3, .L18+4
 157 00be 1A70     		strb	r2, [r3]
  48:.\IRCode.c    **** 				gtag_ircode.decode_delta = 0;
 158              		.loc 1 48 0
 159 00c0 374B     		ldr	r3, .L18+8
 160 00c2 1B78     		ldrb	r3, [r3]
 161 00c4 5A1C     		add	r2, r3, #1
 162 00c6 D1B2     		uxtb	r1, r2
 163 00c8 354A     		ldr	r2, .L18+8
 164 00ca 1170     		strb	r1, [r2]
 165 00cc 1A1C     		mov	r2, r3
 166 00ce 324B     		ldr	r3, .L18
 167 00d0 9B88     		ldrh	r3, [r3, #4]
 168 00d2 9BB2     		uxth	r3, r3
 169 00d4 D9B2     		uxtb	r1, r3
 170 00d6 334B     		ldr	r3, .L18+12
 171 00d8 9954     		strb	r1, [r3, r2]
  49:.\IRCode.c    **** 				if(decodemsg_len >= sizeof(decodemsg))
 172              		.loc 1 49 0
 173 00da 2F4B     		ldr	r3, .L18
 174 00dc 0022     		mov	r2, #0
 175 00de 9A80     		strh	r2, [r3, #4]
  50:.\IRCode.c    **** 				decodemsg_len = 0;
 176              		.loc 1 50 0
 177 00e0 2F4B     		ldr	r3, .L18+8
 178 00e2 1B78     		ldrb	r3, [r3]
 179 00e4 DBB2     		uxtb	r3, r3
 180 00e6 5BB2     		sxtb	r3, r3
 181 00e8 002B     		cmp	r3, #0
 182 00ea 02DA     		bge	.L13
  51:.\IRCode.c    **** 			}
 183              		.loc 1 51 0
 184 00ec 2C4B     		ldr	r3, .L18+8
 185 00ee 0022     		mov	r2, #0
 186 00f0 1A70     		strb	r2, [r3]
ARM GAS  C:\Users\zpstrwy\AppData\Local\Temp\cctNxVi3.s 			page 6


 187              	.L13:
  53:.\IRCode.c    **** 			break;
 188              		.loc 1 53 0
 189 00f2 0F23     		mov	r3, #15
 190 00f4 FB18     		add	r3, r7, r3
 191 00f6 0122     		mov	r2, #1
 192 00f8 1A70     		strb	r2, [r3]
  54:.\IRCode.c    **** 		case 2://开始计数  高电平
 193              		.loc 1 54 0
 194 00fa 45E0     		b	.L10
 195              	.L6:
  56:.\IRCode.c    **** 			if(data >= gtag_ircode.IR_threshold )
 196              		.loc 1 56 0
 197 00fc 0F23     		mov	r3, #15
 198 00fe FB18     		add	r3, r7, r3
 199 0100 0122     		mov	r2, #1
 200 0102 1A70     		strb	r2, [r3]
  57:.\IRCode.c    **** 			{
 201              		.loc 1 57 0
 202 0104 244B     		ldr	r3, .L18
 203 0106 1B78     		ldrb	r3, [r3]
 204 0108 DBB2     		uxtb	r3, r3
 205 010a FA1D     		add	r2, r7, #7
 206 010c 1278     		ldrb	r2, [r2]
 207 010e 9A42     		cmp	r2, r3
 208 0110 19D3     		bcc	.L14
  59:.\IRCode.c    **** 				if(gtag_ircode.decode_delta > 250)
 209              		.loc 1 59 0
 210 0112 214B     		ldr	r3, .L18
 211 0114 9B88     		ldrh	r3, [r3, #4]
 212 0116 9BB2     		uxth	r3, r3
 213 0118 0133     		add	r3, r3, #1
 214 011a 9AB2     		uxth	r2, r3
 215 011c 1E4B     		ldr	r3, .L18
 216 011e 9A80     		strh	r2, [r3, #4]
  60:.\IRCode.c    **** 				{
 217              		.loc 1 60 0
 218 0120 1D4B     		ldr	r3, .L18
 219 0122 9B88     		ldrh	r3, [r3, #4]
 220 0124 9BB2     		uxth	r3, r3
 221 0126 FA2B     		cmp	r3, #250
 222 0128 2DD9     		bls	.L16
  63:.\IRCode.c    **** 					gtag_ircode.IR_NewKeyflag = 1;	
 223              		.loc 1 63 0
 224 012a 1C4B     		ldr	r3, .L18+4
 225 012c 0022     		mov	r2, #0
 226 012e 1A70     		strb	r2, [r3]
  64:.\IRCode.c    **** 					gtag_ircode.decode_delta = 0;
 227              		.loc 1 64 0
 228 0130 194B     		ldr	r3, .L18
 229 0132 0122     		mov	r2, #1
 230 0134 9A70     		strb	r2, [r3, #2]
  65:.\IRCode.c    **** 					status  = 0;
 231              		.loc 1 65 0
 232 0136 184B     		ldr	r3, .L18
 233 0138 0022     		mov	r2, #0
 234 013a 9A80     		strh	r2, [r3, #4]
ARM GAS  C:\Users\zpstrwy\AppData\Local\Temp\cctNxVi3.s 			page 7


  66:.\IRCode.c    **** 				}
 235              		.loc 1 66 0
 236 013c 0F23     		mov	r3, #15
 237 013e FB18     		add	r3, r7, r3
 238 0140 0022     		mov	r2, #0
 239 0142 1A70     		strb	r2, [r3]
  77:.\IRCode.c    **** 		
 240              		.loc 1 77 0
 241 0144 1FE0     		b	.L17
 242              	.L14:
  71:.\IRCode.c    **** 				decodemsg[decodemsg_len++] = gtag_ircode.decode_delta;
 243              		.loc 1 71 0
 244 0146 154B     		ldr	r3, .L18+4
 245 0148 1B78     		ldrb	r3, [r3]
 246 014a 013B     		sub	r3, r3, #1
 247 014c DAB2     		uxtb	r2, r3
 248 014e 134B     		ldr	r3, .L18+4
 249 0150 1A70     		strb	r2, [r3]
  72:.\IRCode.c    **** 				gtag_ircode.decode_delta = 0;
 250              		.loc 1 72 0
 251 0152 134B     		ldr	r3, .L18+8
 252 0154 1B78     		ldrb	r3, [r3]
 253 0156 5A1C     		add	r2, r3, #1
 254 0158 D1B2     		uxtb	r1, r2
 255 015a 114A     		ldr	r2, .L18+8
 256 015c 1170     		strb	r1, [r2]
 257 015e 1A1C     		mov	r2, r3
 258 0160 0D4B     		ldr	r3, .L18
 259 0162 9B88     		ldrh	r3, [r3, #4]
 260 0164 9BB2     		uxth	r3, r3
 261 0166 D9B2     		uxtb	r1, r3
 262 0168 0E4B     		ldr	r3, .L18+12
 263 016a 9954     		strb	r1, [r3, r2]
  73:.\IRCode.c    **** 				if(decodemsg_len >= sizeof(decodemsg))
 264              		.loc 1 73 0
 265 016c 0A4B     		ldr	r3, .L18
 266 016e 0022     		mov	r2, #0
 267 0170 9A80     		strh	r2, [r3, #4]
  74:.\IRCode.c    **** 				decodemsg_len = 0;			
 268              		.loc 1 74 0
 269 0172 0B4B     		ldr	r3, .L18+8
 270 0174 1B78     		ldrb	r3, [r3]
 271 0176 DBB2     		uxtb	r3, r3
 272 0178 5BB2     		sxtb	r3, r3
 273 017a 002B     		cmp	r3, #0
 274 017c 03DA     		bge	.L16
  75:.\IRCode.c    **** 			}
 275              		.loc 1 75 0
 276 017e 084B     		ldr	r3, .L18+8
 277 0180 0022     		mov	r2, #0
 278 0182 1A70     		strb	r2, [r3]
  77:.\IRCode.c    **** 		
 279              		.loc 1 77 0
 280 0184 FFE7     		b	.L17
 281              	.L16:
 282              	.L17:
 283 0186 C046     		mov	r8, r8
ARM GAS  C:\Users\zpstrwy\AppData\Local\Temp\cctNxVi3.s 			page 8


 284              	.L10:
  82:.\IRCode.c    **** 	}
  83:.\IRCode.c    ****     return status;
 285              		.loc 1 83 0
 286 0188 0F23     		mov	r3, #15
 287 018a FB18     		add	r3, r7, r3
 288 018c 1B78     		ldrb	r3, [r3]
 289              	.L3:
  84:.\IRCode.c    **** }
 290              		.loc 1 84 0
 291 018e 181C     		mov	r0, r3
 292 0190 BD46     		mov	sp, r7
 293 0192 04B0     		add	sp, sp, #16
 294              		@ sp needed
 295 0194 80BD     		pop	{r7, pc}
 296              	.L19:
 297 0196 C046     		.align	2
 298              	.L18:
 299 0198 00000000 		.word	gtag_ircode
 300 019c 00000000 		.word	step.8757
 301 01a0 00000000 		.word	decodemsg_len
 302 01a4 00000000 		.word	decodemsg
 303              		.cfi_endproc
 304              	.LFE37:
 305              		.size	Proc_SampDecodeData, .-Proc_SampDecodeData
 306              		.section	.text.ADC_ISR_Handler,"ax",%progbits
 307              		.align	2
 308              		.global	ADC_ISR_Handler
 309              		.code	16
 310              		.thumb_func
 311              		.type	ADC_ISR_Handler, %function
 312              	ADC_ISR_Handler:
 313              	.LFB38:
  85:.\IRCode.c    **** 
  86:.\IRCode.c    **** 
  87:.\IRCode.c    **** //uint16 output;
  88:.\IRCode.c    **** //float32 VOUT;
  89:.\IRCode.c    **** CY_ISR(ADC_ISR_Handler)
  90:.\IRCode.c    **** {
 314              		.loc 1 90 0
 315              		.cfi_startproc
 316 0000 80B5     		push	{r7, lr}
 317              		.cfi_def_cfa_offset 8
 318              		.cfi_offset 7, -8
 319              		.cfi_offset 14, -4
 320 0002 82B0     		sub	sp, sp, #8
 321              		.cfi_def_cfa_offset 16
 322 0004 00AF     		add	r7, sp, #0
 323              		.cfi_def_cfa_register 7
  91:.\IRCode.c    **** 	uint32 intr_status;
  92:.\IRCode.c    **** 
  93:.\IRCode.c    **** 	/* Read interrupt status register */
  94:.\IRCode.c    **** 	intr_status = ADC_SAP_SAR_INTR_REG;
 324              		.loc 1 94 0
 325 0006 094B     		ldr	r3, .L21
 326 0008 1B68     		ldr	r3, [r3]
 327 000a 7B60     		str	r3, [r7, #4]
ARM GAS  C:\Users\zpstrwy\AppData\Local\Temp\cctNxVi3.s 			page 9


  95:.\IRCode.c    **** 
  96:.\IRCode.c    **** 	//output = (int16)(ADC_SAP_SAR_CHAN0_RESULT_REG & ADC_SAP_RESULT_MASK); 
  97:.\IRCode.c    **** 	//VOUT = ADC_SAP_CountsTo_Volts(0,output);
  98:.\IRCode.c    **** 	Proc_SampDecodeData((int16)(ADC_SAP_SAR_CHAN0_RESULT_REG & ADC_SAP_RESULT_MASK)>> 3);
 328              		.loc 1 98 0
 329 000c 084B     		ldr	r3, .L21+4
 330 000e 1B68     		ldr	r3, [r3]
 331 0010 9BB2     		uxth	r3, r3
 332 0012 1BB2     		sxth	r3, r3
 333 0014 DB10     		asr	r3, r3, #3
 334 0016 9BB2     		uxth	r3, r3
 335 0018 DBB2     		uxtb	r3, r3
 336 001a 181C     		mov	r0, r3
 337 001c FFF7FEFF 		bl	Proc_SampDecodeData
  99:.\IRCode.c    **** 	/* Clear handled interrupt */
 100:.\IRCode.c    **** 	ADC_SAP_SAR_INTR_REG = intr_status;
 338              		.loc 1 100 0
 339 0020 024B     		ldr	r3, .L21
 340 0022 7A68     		ldr	r2, [r7, #4]
 341 0024 1A60     		str	r2, [r3]
 101:.\IRCode.c    **** 
 102:.\IRCode.c    **** }
 342              		.loc 1 102 0
 343 0026 BD46     		mov	sp, r7
 344 0028 02B0     		add	sp, sp, #8
 345              		@ sp needed
 346 002a 80BD     		pop	{r7, pc}
 347              	.L22:
 348              		.align	2
 349              	.L21:
 350 002c 10023A40 		.word	1077543440
 351 0030 80013A40 		.word	1077543296
 352              		.cfi_endproc
 353              	.LFE38:
 354              		.size	ADC_ISR_Handler, .-ADC_ISR_Handler
 355              		.global	irinitkey
 356              		.section	.rodata
 357              		.align	2
 358              		.type	irinitkey, %object
 359              		.size	irinitkey, 128
 360              	irinitkey:
 361 0000 55       		.byte	85
 362 0001 04       		.byte	4
 363 0002 11       		.byte	17
 364 0003 EE       		.byte	-18
 365 0004 15       		.byte	21
 366 0005 EA       		.byte	-22
 367 0006 00000000 		.space	122
 367      00000000 
 367      00000000 
 367      00000000 
 367      00000000 
 368              		.section	.text.IrCode_InitKey,"ax",%progbits
 369              		.align	2
 370              		.global	IrCode_InitKey
 371              		.code	16
 372              		.thumb_func
ARM GAS  C:\Users\zpstrwy\AppData\Local\Temp\cctNxVi3.s 			page 10


 373              		.type	IrCode_InitKey, %function
 374              	IrCode_InitKey:
 375              	.LFB39:
 103:.\IRCode.c    **** 
 104:.\IRCode.c    **** const uint8 irinitkey[][128] =
 105:.\IRCode.c    **** {
 106:.\IRCode.c    **** 	{  //OK  
 107:.\IRCode.c    **** 		0x55,0x04,0x11,0xEE,0x15,0xea,
 108:.\IRCode.c    **** 	},
 109:.\IRCode.c    **** 	
 110:.\IRCode.c    **** };
 111:.\IRCode.c    **** void IrCode_InitKey(void)
 112:.\IRCode.c    **** {
 376              		.loc 1 112 0
 377              		.cfi_startproc
 378 0000 80B5     		push	{r7, lr}
 379              		.cfi_def_cfa_offset 8
 380              		.cfi_offset 7, -8
 381              		.cfi_offset 14, -4
 382 0002 82B0     		sub	sp, sp, #8
 383              		.cfi_def_cfa_offset 16
 384 0004 00AF     		add	r7, sp, #0
 385              		.cfi_def_cfa_register 7
 113:.\IRCode.c    **** 	uint8 *readBuf,i;
 114:.\IRCode.c    **** 	readBuf = (uint8*)((CY_FLASH_NUMBER_ROWS-1)*CYDEV_FLS_ROW_SIZE);
 386              		.loc 1 114 0
 387 0006 124B     		ldr	r3, .L28
 388 0008 3B60     		str	r3, [r7]
 115:.\IRCode.c    **** 	if(readBuf[0] == 0x55)	   //初始化过
 389              		.loc 1 115 0
 390 000a 3B68     		ldr	r3, [r7]
 391 000c 1B78     		ldrb	r3, [r3]
 392 000e 552B     		cmp	r3, #85
 393 0010 00D1     		bne	.L24
 116:.\IRCode.c    **** 	return;
 394              		.loc 1 116 0
 395 0012 19E0     		b	.L23
 396              	.L24:
 117:.\IRCode.c    **** 	for(i = 0;i < sizeof(irinitkey)/sizeof(irinitkey[0]);i++)
 397              		.loc 1 117 0
 398 0014 FB1D     		add	r3, r7, #7
 399 0016 0022     		mov	r2, #0
 400 0018 1A70     		strb	r2, [r3]
 401 001a 11E0     		b	.L26
 402              	.L27:
 118:.\IRCode.c    **** 	{
 119:.\IRCode.c    **** 		CySysFlashWriteRow(CY_FLASH_NUMBER_ROWS-1-i,irinitkey[i]);
 403              		.loc 1 119 0 discriminator 3
 404 001c FB1D     		add	r3, r7, #7
 405 001e 1B78     		ldrb	r3, [r3]
 406 0020 0C4A     		ldr	r2, .L28+4
 407 0022 D11A     		sub	r1, r2, r3
 408 0024 FB1D     		add	r3, r7, #7
 409 0026 1B78     		ldrb	r3, [r3]
 410 0028 DA01     		lsl	r2, r3, #7
 411 002a 0B4B     		ldr	r3, .L28+8
 412 002c D318     		add	r3, r2, r3
ARM GAS  C:\Users\zpstrwy\AppData\Local\Temp\cctNxVi3.s 			page 11


 413 002e 081C     		mov	r0, r1
 414 0030 191C     		mov	r1, r3
 415 0032 FFF7FEFF 		bl	CySysFlashWriteRow
 117:.\IRCode.c    **** 	for(i = 0;i < sizeof(irinitkey)/sizeof(irinitkey[0]);i++)
 416              		.loc 1 117 0 discriminator 3
 417 0036 FB1D     		add	r3, r7, #7
 418 0038 1A78     		ldrb	r2, [r3]
 419 003a FB1D     		add	r3, r7, #7
 420 003c 0132     		add	r2, r2, #1
 421 003e 1A70     		strb	r2, [r3]
 422              	.L26:
 117:.\IRCode.c    **** 	for(i = 0;i < sizeof(irinitkey)/sizeof(irinitkey[0]);i++)
 423              		.loc 1 117 0 is_stmt 0 discriminator 1
 424 0040 FB1D     		add	r3, r7, #7
 425 0042 1B78     		ldrb	r3, [r3]
 426 0044 002B     		cmp	r3, #0
 427 0046 E9D0     		beq	.L27
 428              	.L23:
 120:.\IRCode.c    **** 	}
 121:.\IRCode.c    **** }
 429              		.loc 1 121 0 is_stmt 1
 430 0048 BD46     		mov	sp, r7
 431 004a 02B0     		add	sp, sp, #8
 432              		@ sp needed
 433 004c 80BD     		pop	{r7, pc}
 434              	.L29:
 435 004e C046     		.align	2
 436              	.L28:
 437 0050 80FF0100 		.word	130944
 438 0054 FF030000 		.word	1023
 439 0058 00000000 		.word	irinitkey
 440              		.cfi_endproc
 441              	.LFE39:
 442              		.size	IrCode_InitKey, .-IrCode_InitKey
 443              		.section	.text.IrCode_Init,"ax",%progbits
 444              		.align	2
 445              		.global	IrCode_Init
 446              		.code	16
 447              		.thumb_func
 448              		.type	IrCode_Init, %function
 449              	IrCode_Init:
 450              	.LFB40:
 122:.\IRCode.c    **** 
 123:.\IRCode.c    **** void IrCode_Init(void)
 124:.\IRCode.c    **** {
 451              		.loc 1 124 0
 452              		.cfi_startproc
 453 0000 80B5     		push	{r7, lr}
 454              		.cfi_def_cfa_offset 8
 455              		.cfi_offset 7, -8
 456              		.cfi_offset 14, -4
 457 0002 82B0     		sub	sp, sp, #8
 458              		.cfi_def_cfa_offset 16
 459 0004 00AF     		add	r7, sp, #0
 460              		.cfi_def_cfa_register 7
 125:.\IRCode.c    **** 	uint8 i;
 126:.\IRCode.c    **** 	uint16 sum;
ARM GAS  C:\Users\zpstrwy\AppData\Local\Temp\cctNxVi3.s 			page 12


 127:.\IRCode.c    ****    	CTL_DOut_Write(0);
 461              		.loc 1 127 0
 462 0006 0020     		mov	r0, #0
 463 0008 FFF7FEFF 		bl	CTL_DOut_Write
 128:.\IRCode.c    ****     ADC_SAP_Start();           /* Initialize ADC */ 
 464              		.loc 1 128 0
 465 000c FFF7FEFF 		bl	ADC_SAP_Start
 129:.\IRCode.c    **** 	ADC_SAP_IRQ_StartEx(ADC_ISR_Handler);
 466              		.loc 1 129 0
 467 0010 234B     		ldr	r3, .L33
 468 0012 181C     		mov	r0, r3
 469 0014 FFF7FEFF 		bl	ADC_SAP_IRQ_StartEx
 130:.\IRCode.c    **** 	ADC_SAP_IRQ_Disable();
 470              		.loc 1 130 0
 471 0018 FFF7FEFF 		bl	ADC_SAP_IRQ_Disable
 131:.\IRCode.c    **** 	memset((uint8*)&gtag_ircode,0x00,sizeof(TAG_IRCODE));
 472              		.loc 1 131 0
 473 001c 214B     		ldr	r3, .L33+4
 474 001e 181C     		mov	r0, r3
 475 0020 0021     		mov	r1, #0
 476 0022 0C22     		mov	r2, #12
 477 0024 FFF7FEFF 		bl	memset
 132:.\IRCode.c    **** 	//获取一次
 133:.\IRCode.c    **** 	sum = 0;
 478              		.loc 1 133 0
 479 0028 3B1D     		add	r3, r7, #4
 480 002a 0022     		mov	r2, #0
 481 002c 1A80     		strh	r2, [r3]
 134:.\IRCode.c    **** 	for(i = 0;i < 8;i++)
 482              		.loc 1 134 0
 483 002e FB1D     		add	r3, r7, #7
 484 0030 0022     		mov	r2, #0
 485 0032 1A70     		strb	r2, [r3]
 486 0034 16E0     		b	.L31
 487              	.L32:
 135:.\IRCode.c    **** 	{
 136:.\IRCode.c    **** 		 ADC_SAP_StartConvert();    /* Start ADC conversions */	
 488              		.loc 1 136 0 discriminator 3
 489 0036 FFF7FEFF 		bl	ADC_SAP_StartConvert
 137:.\IRCode.c    **** 		 ADC_SAP_IsEndConversion(ADC_SAP_WAIT_FOR_RESULT);
 490              		.loc 1 137 0 discriminator 3
 491 003a 0220     		mov	r0, #2
 492 003c FFF7FEFF 		bl	ADC_SAP_IsEndConversion
 138:.\IRCode.c    **** 		 sum += ((int16)(ADC_SAP_SAR_CHAN0_RESULT_REG & ADC_SAP_RESULT_MASK)>> 3);
 493              		.loc 1 138 0 discriminator 3
 494 0040 194B     		ldr	r3, .L33+8
 495 0042 1B68     		ldr	r3, [r3]
 496 0044 9BB2     		uxth	r3, r3
 497 0046 1BB2     		sxth	r3, r3
 498 0048 DB10     		asr	r3, r3, #3
 499 004a 9BB2     		uxth	r3, r3
 500 004c 1BB2     		sxth	r3, r3
 501 004e 99B2     		uxth	r1, r3
 502 0050 3B1D     		add	r3, r7, #4
 503 0052 3A1D     		add	r2, r7, #4
 504 0054 1288     		ldrh	r2, [r2]
 505 0056 8A18     		add	r2, r1, r2
ARM GAS  C:\Users\zpstrwy\AppData\Local\Temp\cctNxVi3.s 			page 13


 506 0058 1A80     		strh	r2, [r3]
 134:.\IRCode.c    **** 	{
 507              		.loc 1 134 0 discriminator 3
 508 005a FB1D     		add	r3, r7, #7
 509 005c 1A78     		ldrb	r2, [r3]
 510 005e FB1D     		add	r3, r7, #7
 511 0060 0132     		add	r2, r2, #1
 512 0062 1A70     		strb	r2, [r3]
 513              	.L31:
 134:.\IRCode.c    **** 	{
 514              		.loc 1 134 0 is_stmt 0 discriminator 1
 515 0064 FB1D     		add	r3, r7, #7
 516 0066 1B78     		ldrb	r3, [r3]
 517 0068 072B     		cmp	r3, #7
 518 006a E4D9     		bls	.L32
 139:.\IRCode.c    **** 	}
 140:.\IRCode.c    **** 	gtag_ircode.IR_threshold = sum /8;
 519              		.loc 1 140 0 is_stmt 1
 520 006c 3B1D     		add	r3, r7, #4
 521 006e 1B88     		ldrh	r3, [r3]
 522 0070 DB08     		lsr	r3, r3, #3
 523 0072 9BB2     		uxth	r3, r3
 524 0074 DAB2     		uxtb	r2, r3
 525 0076 0B4B     		ldr	r3, .L33+4
 526 0078 1A70     		strb	r2, [r3]
 141:.\IRCode.c    **** 	gtag_ircode.IR_threshold/=2;
 527              		.loc 1 141 0
 528 007a 0A4B     		ldr	r3, .L33+4
 529 007c 1B78     		ldrb	r3, [r3]
 530 007e DBB2     		uxtb	r3, r3
 531 0080 5B08     		lsr	r3, r3, #1
 532 0082 DAB2     		uxtb	r2, r3
 533 0084 074B     		ldr	r3, .L33+4
 534 0086 1A70     		strb	r2, [r3]
 142:.\IRCode.c    **** 	ADC_SAP_IRQ_Enable();      /* Enable ADC interrupts */ 
 535              		.loc 1 142 0
 536 0088 FFF7FEFF 		bl	ADC_SAP_IRQ_Enable
 143:.\IRCode.c    **** 	IrCode_InitKey();
 537              		.loc 1 143 0
 538 008c FFF7FEFF 		bl	IrCode_InitKey
 144:.\IRCode.c    **** 	Timer_Start();
 539              		.loc 1 144 0
 540 0090 FFF7FEFF 		bl	Timer_Start
 145:.\IRCode.c    **** 	gtag_ircode.IR_NewKeyflag  =  1 ;   
 541              		.loc 1 145 0
 542 0094 034B     		ldr	r3, .L33+4
 543 0096 0122     		mov	r2, #1
 544 0098 9A70     		strb	r2, [r3, #2]
 146:.\IRCode.c    **** }
 545              		.loc 1 146 0
 546 009a BD46     		mov	sp, r7
 547 009c 02B0     		add	sp, sp, #8
 548              		@ sp needed
 549 009e 80BD     		pop	{r7, pc}
 550              	.L34:
 551              		.align	2
 552              	.L33:
ARM GAS  C:\Users\zpstrwy\AppData\Local\Temp\cctNxVi3.s 			page 14


 553 00a0 00000000 		.word	ADC_ISR_Handler
 554 00a4 00000000 		.word	gtag_ircode
 555 00a8 80013A40 		.word	1077543296
 556              		.cfi_endproc
 557              	.LFE40:
 558              		.size	IrCode_Init, .-IrCode_Init
 559              		.section	.text.SampDecodeData_Loop,"ax",%progbits
 560              		.align	2
 561              		.global	SampDecodeData_Loop
 562              		.code	16
 563              		.thumb_func
 564              		.type	SampDecodeData_Loop, %function
 565              	SampDecodeData_Loop:
 566              	.LFB41:
 147:.\IRCode.c    **** 
 148:.\IRCode.c    **** void SampDecodeData_Loop(void)
 149:.\IRCode.c    **** {
 567              		.loc 1 149 0
 568              		.cfi_startproc
 569 0000 80B5     		push	{r7, lr}
 570              		.cfi_def_cfa_offset 8
 571              		.cfi_offset 7, -8
 572              		.cfi_offset 14, -4
 573 0002 00AF     		add	r7, sp, #0
 574              		.cfi_def_cfa_register 7
 150:.\IRCode.c    **** 	CyGlobalIntDisable;
 575              		.loc 1 150 0
 576              	@ 150 ".\IRCode.c" 1
 577 0004 72B6     		CPSID   i
 578              	@ 0 "" 2
 579              		.code	16
 580              	.L38:
 151:.\IRCode.c    **** 	while(1)
 152:.\IRCode.c    **** 	{
 153:.\IRCode.c    **** 		   /* Start ADC conversions */	
 154:.\IRCode.c    **** 		ADC_SAP_IsEndConversion(ADC_SAP_WAIT_FOR_RESULT);
 581              		.loc 1 154 0
 582 0006 0220     		mov	r0, #2
 583 0008 FFF7FEFF 		bl	ADC_SAP_IsEndConversion
 155:.\IRCode.c    **** 		if(Proc_SampDecodeData((int16)(ADC_SAP_SAR_CHAN0_RESULT_REG & ADC_SAP_RESULT_MASK)>> 3) == 0)
 584              		.loc 1 155 0
 585 000c 084B     		ldr	r3, .L40
 586 000e 1B68     		ldr	r3, [r3]
 587 0010 9BB2     		uxth	r3, r3
 588 0012 1BB2     		sxth	r3, r3
 589 0014 DB10     		asr	r3, r3, #3
 590 0016 9BB2     		uxth	r3, r3
 591 0018 DBB2     		uxtb	r3, r3
 592 001a 181C     		mov	r0, r3
 593 001c FFF7FEFF 		bl	Proc_SampDecodeData
 594 0020 031E     		sub	r3, r0, #0
 595 0022 00D1     		bne	.L36
 156:.\IRCode.c    **** 		{
 157:.\IRCode.c    **** 			break;
 596              		.loc 1 157 0
 597 0024 00E0     		b	.L39
 598              	.L36:
ARM GAS  C:\Users\zpstrwy\AppData\Local\Temp\cctNxVi3.s 			page 15


 158:.\IRCode.c    **** 		}
 159:.\IRCode.c    **** 	}
 599              		.loc 1 159 0
 600 0026 EEE7     		b	.L38
 601              	.L39:
 160:.\IRCode.c    **** 	CyGlobalIntEnable;
 602              		.loc 1 160 0
 603              	@ 160 ".\IRCode.c" 1
 604 0028 62B6     		CPSIE   i
 605              	@ 0 "" 2
 161:.\IRCode.c    **** }
 606              		.loc 1 161 0
 607              		.code	16
 608 002a BD46     		mov	sp, r7
 609              		@ sp needed
 610 002c 80BD     		pop	{r7, pc}
 611              	.L41:
 612 002e C046     		.align	2
 613              	.L40:
 614 0030 80013A40 		.word	1077543296
 615              		.cfi_endproc
 616              	.LFE41:
 617              		.size	SampDecodeData_Loop, .-SampDecodeData_Loop
 618              		.section	.text.Ir_DecoderCode,"ax",%progbits
 619              		.align	2
 620              		.code	16
 621              		.thumb_func
 622              		.type	Ir_DecoderCode, %function
 623              	Ir_DecoderCode:
 624              	.LFB42:
 162:.\IRCode.c    **** 
 163:.\IRCode.c    **** 
 164:.\IRCode.c    **** static uint32 Ir_DecoderCode(void)
 165:.\IRCode.c    **** {
 625              		.loc 1 165 0
 626              		.cfi_startproc
 627 0000 80B5     		push	{r7, lr}
 628              		.cfi_def_cfa_offset 8
 629              		.cfi_offset 7, -8
 630              		.cfi_offset 14, -4
 631 0002 82B0     		sub	sp, sp, #8
 632              		.cfi_def_cfa_offset 16
 633 0004 00AF     		add	r7, sp, #0
 634              		.cfi_def_cfa_register 7
 166:.\IRCode.c    **** 	uint8 i,ucPreBit,ucCurBit;
 167:.\IRCode.c    **** 	uint32 uiRetCmd;
 168:.\IRCode.c    **** 	if(decodemsg_len != 32*2 + 1 + 2)
 635              		.loc 1 168 0
 636 0006 3E4B     		ldr	r3, .L58
 637 0008 1B78     		ldrb	r3, [r3]
 638 000a 432B     		cmp	r3, #67
 639 000c 01D0     		beq	.L43
 169:.\IRCode.c    **** 		return 0;
 640              		.loc 1 169 0
 641 000e 0023     		mov	r3, #0
 642 0010 72E0     		b	.L44
 643              	.L43:
ARM GAS  C:\Users\zpstrwy\AppData\Local\Temp\cctNxVi3.s 			page 16


 170:.\IRCode.c    **** 	i = 0;
 644              		.loc 1 170 0
 645 0012 FB1D     		add	r3, r7, #7
 646 0014 0022     		mov	r2, #0
 647 0016 1A70     		strb	r2, [r3]
 171:.\IRCode.c    **** 	if(decodemsg[i++] < 135)   //9 ms
 648              		.loc 1 171 0
 649 0018 FB1D     		add	r3, r7, #7
 650 001a 1B78     		ldrb	r3, [r3]
 651 001c FA1D     		add	r2, r7, #7
 652 001e 591C     		add	r1, r3, #1
 653 0020 1170     		strb	r1, [r2]
 654 0022 1A1C     		mov	r2, r3
 655 0024 374B     		ldr	r3, .L58+4
 656 0026 9B5C     		ldrb	r3, [r3, r2]
 657 0028 862B     		cmp	r3, #134
 658 002a 01D8     		bhi	.L45
 172:.\IRCode.c    **** 		return 0;
 659              		.loc 1 172 0
 660 002c 0023     		mov	r3, #0
 661 002e 63E0     		b	.L44
 662              	.L45:
 173:.\IRCode.c    **** 	if(decodemsg[i++] < 59)   //   4ms
 663              		.loc 1 173 0
 664 0030 FB1D     		add	r3, r7, #7
 665 0032 1B78     		ldrb	r3, [r3]
 666 0034 FA1D     		add	r2, r7, #7
 667 0036 591C     		add	r1, r3, #1
 668 0038 1170     		strb	r1, [r2]
 669 003a 1A1C     		mov	r2, r3
 670 003c 314B     		ldr	r3, .L58+4
 671 003e 9B5C     		ldrb	r3, [r3, r2]
 672 0040 3A2B     		cmp	r3, #58
 673 0042 01D8     		bhi	.L46
 174:.\IRCode.c    **** 		return 0;	
 674              		.loc 1 174 0
 675 0044 0023     		mov	r3, #0
 676 0046 57E0     		b	.L44
 677              	.L46:
 175:.\IRCode.c    **** 	uiRetCmd = 0;
 678              		.loc 1 175 0
 679 0048 0023     		mov	r3, #0
 680 004a 3B60     		str	r3, [r7]
 176:.\IRCode.c    **** 	for(;i < decodemsg_len-1;i ++)
 681              		.loc 1 176 0
 682 004c 39E0     		b	.L47
 683              	.L55:
 177:.\IRCode.c    **** 	{
 178:.\IRCode.c    **** 		
 179:.\IRCode.c    **** 		if(decodemsg[i] < 26)
 684              		.loc 1 179 0
 685 004e FB1D     		add	r3, r7, #7
 686 0050 1B78     		ldrb	r3, [r3]
 687 0052 2C4A     		ldr	r2, .L58+4
 688 0054 D35C     		ldrb	r3, [r2, r3]
 689 0056 192B     		cmp	r3, #25
 690 0058 03D8     		bhi	.L48
ARM GAS  C:\Users\zpstrwy\AppData\Local\Temp\cctNxVi3.s 			page 17


 180:.\IRCode.c    **** 			ucCurBit = 0;
 691              		.loc 1 180 0
 692 005a 7B1D     		add	r3, r7, #5
 693 005c 0022     		mov	r2, #0
 694 005e 1A70     		strb	r2, [r3]
 695 0060 02E0     		b	.L49
 696              	.L48:
 181:.\IRCode.c    **** 		else 
 182:.\IRCode.c    **** 			ucCurBit = 1;
 697              		.loc 1 182 0
 698 0062 7B1D     		add	r3, r7, #5
 699 0064 0122     		mov	r2, #1
 700 0066 1A70     		strb	r2, [r3]
 701              	.L49:
 183:.\IRCode.c    **** 		if((i % 2) != 0)   //  到结果位
 702              		.loc 1 183 0
 703 0068 FB1D     		add	r3, r7, #7
 704 006a 1B78     		ldrb	r3, [r3]
 705 006c 0122     		mov	r2, #1
 706 006e 1340     		and	r3, r2
 707 0070 DBB2     		uxtb	r3, r3
 708 0072 002B     		cmp	r3, #0
 709 0074 1CD0     		beq	.L50
 184:.\IRCode.c    **** 		{
 185:.\IRCode.c    **** 			uiRetCmd >>= 1;
 710              		.loc 1 185 0
 711 0076 3B68     		ldr	r3, [r7]
 712 0078 5B08     		lsr	r3, r3, #1
 713 007a 3B60     		str	r3, [r7]
 186:.\IRCode.c    **** 			if(ucCurBit == 1 && ucPreBit == 0)
 714              		.loc 1 186 0
 715 007c 7B1D     		add	r3, r7, #5
 716 007e 1B78     		ldrb	r3, [r3]
 717 0080 012B     		cmp	r3, #1
 718 0082 09D1     		bne	.L51
 719              		.loc 1 186 0 is_stmt 0 discriminator 1
 720 0084 BB1D     		add	r3, r7, #6
 721 0086 1B78     		ldrb	r3, [r3]
 722 0088 002B     		cmp	r3, #0
 723 008a 05D1     		bne	.L51
 187:.\IRCode.c    **** 				uiRetCmd |= 0x80000000;
 724              		.loc 1 187 0 is_stmt 1
 725 008c 3B68     		ldr	r3, [r7]
 726 008e 8022     		mov	r2, #128
 727 0090 1206     		lsl	r2, r2, #24
 728 0092 1343     		orr	r3, r2
 729 0094 3B60     		str	r3, [r7]
 730 0096 0AE0     		b	.L52
 731              	.L51:
 188:.\IRCode.c    **** 			else if(ucCurBit == 0 && ucPreBit == 0)
 732              		.loc 1 188 0
 733 0098 7B1D     		add	r3, r7, #5
 734 009a 1B78     		ldrb	r3, [r3]
 735 009c 002B     		cmp	r3, #0
 736 009e 04D1     		bne	.L53
 737              		.loc 1 188 0 is_stmt 0 discriminator 1
 738 00a0 BB1D     		add	r3, r7, #6
ARM GAS  C:\Users\zpstrwy\AppData\Local\Temp\cctNxVi3.s 			page 18


 739 00a2 1B78     		ldrb	r3, [r3]
 740 00a4 002B     		cmp	r3, #0
 741 00a6 00D1     		bne	.L53
 189:.\IRCode.c    **** 				uiRetCmd |= 0x00;
 742              		.loc 1 189 0 is_stmt 1
 743 00a8 01E0     		b	.L52
 744              	.L53:
 190:.\IRCode.c    **** 			else 
 191:.\IRCode.c    **** 				return 0;
 745              		.loc 1 191 0
 746 00aa 0023     		mov	r3, #0
 747 00ac 24E0     		b	.L44
 748              	.L52:
 749 00ae 03E0     		b	.L54
 750              	.L50:
 192:.\IRCode.c    **** 		}
 193:.\IRCode.c    **** 		else
 194:.\IRCode.c    **** 			ucPreBit = ucCurBit;
 751              		.loc 1 194 0
 752 00b0 BB1D     		add	r3, r7, #6
 753 00b2 7A1D     		add	r2, r7, #5
 754 00b4 1278     		ldrb	r2, [r2]
 755 00b6 1A70     		strb	r2, [r3]
 756              	.L54:
 176:.\IRCode.c    **** 	{
 757              		.loc 1 176 0
 758 00b8 FB1D     		add	r3, r7, #7
 759 00ba 1A78     		ldrb	r2, [r3]
 760 00bc FB1D     		add	r3, r7, #7
 761 00be 0132     		add	r2, r2, #1
 762 00c0 1A70     		strb	r2, [r3]
 763              	.L47:
 176:.\IRCode.c    **** 	{
 764              		.loc 1 176 0 is_stmt 0 discriminator 1
 765 00c2 FB1D     		add	r3, r7, #7
 766 00c4 1A78     		ldrb	r2, [r3]
 767 00c6 0E4B     		ldr	r3, .L58
 768 00c8 1B78     		ldrb	r3, [r3]
 769 00ca 013B     		sub	r3, r3, #1
 770 00cc 9A42     		cmp	r2, r3
 771 00ce BEDB     		blt	.L55
 195:.\IRCode.c    **** 	}
 196:.\IRCode.c    **** 	if(decodemsg[i]  >  59)  //stop bit
 772              		.loc 1 196 0 is_stmt 1
 773 00d0 FB1D     		add	r3, r7, #7
 774 00d2 1B78     		ldrb	r3, [r3]
 775 00d4 0B4A     		ldr	r2, .L58+4
 776 00d6 D35C     		ldrb	r3, [r2, r3]
 777 00d8 3B2B     		cmp	r3, #59
 778 00da 01D9     		bls	.L56
 197:.\IRCode.c    **** 			return 0;
 779              		.loc 1 197 0
 780 00dc 0023     		mov	r3, #0
 781 00de 0BE0     		b	.L44
 782              	.L56:
 198:.\IRCode.c    **** 	// 判断命令是否重复
 199:.\IRCode.c    **** 	if((uiRetCmd >>24 & 0x00ff) != (~uiRetCmd >>16 & 0x00ff))
ARM GAS  C:\Users\zpstrwy\AppData\Local\Temp\cctNxVi3.s 			page 19


 783              		.loc 1 199 0
 784 00e0 3B68     		ldr	r3, [r7]
 785 00e2 1A0E     		lsr	r2, r3, #24
 786 00e4 3B68     		ldr	r3, [r7]
 787 00e6 DB43     		mvn	r3, r3
 788 00e8 1B0C     		lsr	r3, r3, #16
 789 00ea FF21     		mov	r1, #255
 790 00ec 0B40     		and	r3, r1
 791 00ee 9A42     		cmp	r2, r3
 792 00f0 01D0     		beq	.L57
 200:.\IRCode.c    **** 		return 0;
 793              		.loc 1 200 0
 794 00f2 0023     		mov	r3, #0
 795 00f4 00E0     		b	.L44
 796              	.L57:
 201:.\IRCode.c    **** 	return uiRetCmd;
 797              		.loc 1 201 0
 798 00f6 3B68     		ldr	r3, [r7]
 799              	.L44:
 202:.\IRCode.c    **** }
 800              		.loc 1 202 0
 801 00f8 181C     		mov	r0, r3
 802 00fa BD46     		mov	sp, r7
 803 00fc 02B0     		add	sp, sp, #8
 804              		@ sp needed
 805 00fe 80BD     		pop	{r7, pc}
 806              	.L59:
 807              		.align	2
 808              	.L58:
 809 0100 00000000 		.word	decodemsg_len
 810 0104 00000000 		.word	decodemsg
 811              		.cfi_endproc
 812              	.LFE42:
 813              		.size	Ir_DecoderCode, .-Ir_DecoderCode
 814              		.section	.text.IrCode_ScanKey,"ax",%progbits
 815              		.align	2
 816              		.global	IrCode_ScanKey
 817              		.code	16
 818              		.thumb_func
 819              		.type	IrCode_ScanKey, %function
 820              	IrCode_ScanKey:
 821              	.LFB43:
 203:.\IRCode.c    **** uint8 IrCode_ScanKey(void)
 204:.\IRCode.c    **** {
 822              		.loc 1 204 0
 823              		.cfi_startproc
 824 0000 80B5     		push	{r7, lr}
 825              		.cfi_def_cfa_offset 8
 826              		.cfi_offset 7, -8
 827              		.cfi_offset 14, -4
 828 0002 84B0     		sub	sp, sp, #16
 829              		.cfi_def_cfa_offset 24
 830 0004 00AF     		add	r7, sp, #0
 831              		.cfi_def_cfa_register 7
 205:.\IRCode.c    **** 	uint8 i;
 206:.\IRCode.c    **** 	uint8 *readBuf;
 207:.\IRCode.c    **** 	uint32 uiRetCmd,uiReadCmd;
ARM GAS  C:\Users\zpstrwy\AppData\Local\Temp\cctNxVi3.s 			page 20


 208:.\IRCode.c    **** 	//SampDecodeData_Loop();
 209:.\IRCode.c    **** 	if(!gtag_ircode.IR_NewKeyflag)
 832              		.loc 1 209 0
 833 0006 2E4B     		ldr	r3, .L70
 834 0008 9B78     		ldrb	r3, [r3, #2]
 835 000a DBB2     		uxtb	r3, r3
 836 000c 002B     		cmp	r3, #0
 837 000e 01D1     		bne	.L61
 210:.\IRCode.c    **** 	return 0;
 838              		.loc 1 210 0
 839 0010 0023     		mov	r3, #0
 840 0012 50E0     		b	.L62
 841              	.L61:
 211:.\IRCode.c    **** 	//查找类似按键 方差计算
 212:.\IRCode.c    **** 	uiRetCmd = Ir_DecoderCode();
 842              		.loc 1 212 0
 843 0014 FFF7FEFF 		bl	Ir_DecoderCode
 844 0018 031C     		mov	r3, r0
 845 001a BB60     		str	r3, [r7, #8]
 213:.\IRCode.c    **** 	gtag_ircode.IR_NewKeyflag = 0;
 846              		.loc 1 213 0
 847 001c 284B     		ldr	r3, .L70
 848 001e 0022     		mov	r2, #0
 849 0020 9A70     		strb	r2, [r3, #2]
 214:.\IRCode.c    **** 	if(uiRetCmd == 0)
 850              		.loc 1 214 0
 851 0022 BB68     		ldr	r3, [r7, #8]
 852 0024 002B     		cmp	r3, #0
 853 0026 01D1     		bne	.L63
 215:.\IRCode.c    **** 		return 0;
 854              		.loc 1 215 0
 855 0028 0023     		mov	r3, #0
 856 002a 44E0     		b	.L62
 857              	.L63:
 216:.\IRCode.c    **** 	for(i = 1;i < 0x7f;i++)
 858              		.loc 1 216 0
 859 002c 0F23     		mov	r3, #15
 860 002e FB18     		add	r3, r7, r3
 861 0030 0122     		mov	r2, #1
 862 0032 1A70     		strb	r2, [r3]
 863 0034 30E0     		b	.L64
 864              	.L68:
 217:.\IRCode.c    **** 	{
 218:.\IRCode.c    **** 		readBuf = (uint8*)((CY_FLASH_NUMBER_ROWS-i)*CYDEV_FLS_ROW_SIZE);
 865              		.loc 1 218 0
 866 0036 0F23     		mov	r3, #15
 867 0038 FB18     		add	r3, r7, r3
 868 003a 1A78     		ldrb	r2, [r3]
 869 003c 131C     		mov	r3, r2
 870 003e 5B06     		lsl	r3, r3, #25
 871 0040 9B1A     		sub	r3, r3, r2
 872 0042 DB01     		lsl	r3, r3, #7
 873 0044 8022     		mov	r2, #128
 874 0046 9202     		lsl	r2, r2, #10
 875 0048 9446     		mov	ip, r2
 876 004a 6344     		add	r3, r3, ip
 877 004c 7B60     		str	r3, [r7, #4]
ARM GAS  C:\Users\zpstrwy\AppData\Local\Temp\cctNxVi3.s 			page 21


 219:.\IRCode.c    **** 		if(readBuf[0] != 0x55)
 878              		.loc 1 219 0
 879 004e 7B68     		ldr	r3, [r7, #4]
 880 0050 1B78     		ldrb	r3, [r3]
 881 0052 552B     		cmp	r3, #85
 882 0054 00D0     		beq	.L65
 220:.\IRCode.c    **** 			continue;
 883              		.loc 1 220 0
 884 0056 18E0     		b	.L66
 885              	.L65:
 221:.\IRCode.c    **** 		//存在数据比对
 222:.\IRCode.c    **** 		uiReadCmd = readBuf[2] +readBuf[3]*0x100+readBuf[4]*0x10000+readBuf[5]*0x1000000;
 886              		.loc 1 222 0
 887 0058 7B68     		ldr	r3, [r7, #4]
 888 005a 0233     		add	r3, r3, #2
 889 005c 1B78     		ldrb	r3, [r3]
 890 005e 1A1C     		mov	r2, r3
 891 0060 7B68     		ldr	r3, [r7, #4]
 892 0062 0333     		add	r3, r3, #3
 893 0064 1B78     		ldrb	r3, [r3]
 894 0066 1B02     		lsl	r3, r3, #8
 895 0068 D218     		add	r2, r2, r3
 896 006a 7B68     		ldr	r3, [r7, #4]
 897 006c 0433     		add	r3, r3, #4
 898 006e 1B78     		ldrb	r3, [r3]
 899 0070 1B04     		lsl	r3, r3, #16
 900 0072 D218     		add	r2, r2, r3
 901 0074 7B68     		ldr	r3, [r7, #4]
 902 0076 0533     		add	r3, r3, #5
 903 0078 1B78     		ldrb	r3, [r3]
 904 007a 1B06     		lsl	r3, r3, #24
 905 007c D318     		add	r3, r2, r3
 906 007e 3B60     		str	r3, [r7]
 223:.\IRCode.c    **** 		if(uiRetCmd == uiReadCmd)
 907              		.loc 1 223 0
 908 0080 BA68     		ldr	r2, [r7, #8]
 909 0082 3B68     		ldr	r3, [r7]
 910 0084 9A42     		cmp	r2, r3
 911 0086 00D1     		bne	.L66
 224:.\IRCode.c    **** 			break;
 912              		.loc 1 224 0
 913 0088 0BE0     		b	.L67
 914              	.L66:
 216:.\IRCode.c    **** 	{
 915              		.loc 1 216 0 discriminator 2
 916 008a 0F23     		mov	r3, #15
 917 008c FB18     		add	r3, r7, r3
 918 008e 1A78     		ldrb	r2, [r3]
 919 0090 0F23     		mov	r3, #15
 920 0092 FB18     		add	r3, r7, r3
 921 0094 0132     		add	r2, r2, #1
 922 0096 1A70     		strb	r2, [r3]
 923              	.L64:
 216:.\IRCode.c    **** 	{
 924              		.loc 1 216 0 is_stmt 0 discriminator 1
 925 0098 0F23     		mov	r3, #15
 926 009a FB18     		add	r3, r7, r3
ARM GAS  C:\Users\zpstrwy\AppData\Local\Temp\cctNxVi3.s 			page 22


 927 009c 1B78     		ldrb	r3, [r3]
 928 009e 7E2B     		cmp	r3, #126
 929 00a0 C9D9     		bls	.L68
 930              	.L67:
 225:.\IRCode.c    **** 	}
 226:.\IRCode.c    **** 	if(i == 0x7f)
 931              		.loc 1 226 0 is_stmt 1
 932 00a2 0F23     		mov	r3, #15
 933 00a4 FB18     		add	r3, r7, r3
 934 00a6 1B78     		ldrb	r3, [r3]
 935 00a8 7F2B     		cmp	r3, #127
 936 00aa 01D1     		bne	.L69
 227:.\IRCode.c    **** 		return 0 ;
 937              		.loc 1 227 0
 938 00ac 0023     		mov	r3, #0
 939 00ae 02E0     		b	.L62
 940              	.L69:
 228:.\IRCode.c    **** 	else 
 229:.\IRCode.c    **** 		return i;
 941              		.loc 1 229 0
 942 00b0 0F23     		mov	r3, #15
 943 00b2 FB18     		add	r3, r7, r3
 944 00b4 1B78     		ldrb	r3, [r3]
 945              	.L62:
 230:.\IRCode.c    **** }
 946              		.loc 1 230 0
 947 00b6 181C     		mov	r0, r3
 948 00b8 BD46     		mov	sp, r7
 949 00ba 04B0     		add	sp, sp, #16
 950              		@ sp needed
 951 00bc 80BD     		pop	{r7, pc}
 952              	.L71:
 953 00be C046     		.align	2
 954              	.L70:
 955 00c0 00000000 		.word	gtag_ircode
 956              		.cfi_endproc
 957              	.LFE43:
 958              		.size	IrCode_ScanKey, .-IrCode_ScanKey
 959              		.global	__aeabi_uidiv
 960              		.section	.text.SendTempKey,"ax",%progbits
 961              		.align	2
 962              		.global	SendTempKey
 963              		.code	16
 964              		.thumb_func
 965              		.type	SendTempKey, %function
 966              	SendTempKey:
 967              	.LFB44:
 231:.\IRCode.c    **** 
 232:.\IRCode.c    **** 
 233:.\IRCode.c    **** void SendTempKey(uint32 uiSendKey)
 234:.\IRCode.c    **** {
 968              		.loc 1 234 0
 969              		.cfi_startproc
 970 0000 90B5     		push	{r4, r7, lr}
 971              		.cfi_def_cfa_offset 12
 972              		.cfi_offset 4, -12
 973              		.cfi_offset 7, -8
ARM GAS  C:\Users\zpstrwy\AppData\Local\Temp\cctNxVi3.s 			page 23


 974              		.cfi_offset 14, -4
 975 0002 87B0     		sub	sp, sp, #28
 976              		.cfi_def_cfa_offset 40
 977 0004 00AF     		add	r7, sp, #0
 978              		.cfi_def_cfa_register 7
 979 0006 7860     		str	r0, [r7, #4]
 235:.\IRCode.c    **** 	uint32 cmd,i,uiCurTick;
 236:.\IRCode.c    **** 	cmd = uiSendKey;
 980              		.loc 1 236 0
 981 0008 7B68     		ldr	r3, [r7, #4]
 982 000a 7B61     		str	r3, [r7, #20]
 237:.\IRCode.c    **** 	//send startx;
 238:.\IRCode.c    **** 	PWM_SEND_Start();
 983              		.loc 1 238 0
 984 000c FFF7FEFF 		bl	PWM_SEND_Start
 239:.\IRCode.c    **** 	gtag_ircode.tick_50us = 0;
 985              		.loc 1 239 0
 986 0010 534B     		ldr	r3, .L84
 987 0012 0022     		mov	r2, #0
 988 0014 9A60     		str	r2, [r3, #8]
 240:.\IRCode.c    **** 	uiCurTick = 9000;
 989              		.loc 1 240 0
 990 0016 534B     		ldr	r3, .L84+4
 991 0018 FB60     		str	r3, [r7, #12]
 241:.\IRCode.c    **** 	while(gtag_ircode.tick_50us  < uiCurTick/50);
 992              		.loc 1 241 0
 993 001a C046     		mov	r8, r8
 994              	.L73:
 995              		.loc 1 241 0 is_stmt 0 discriminator 1
 996 001c 504B     		ldr	r3, .L84
 997 001e 9C68     		ldr	r4, [r3, #8]
 998 0020 FB68     		ldr	r3, [r7, #12]
 999 0022 181C     		mov	r0, r3
 1000 0024 3221     		mov	r1, #50
 1001 0026 FFF7FEFF 		bl	__aeabi_uidiv
 1002 002a 031C     		mov	r3, r0
 1003 002c 9C42     		cmp	r4, r3
 1004 002e F5D3     		bcc	.L73
 242:.\IRCode.c    **** 	PWM_SEND_Stop();
 1005              		.loc 1 242 0 is_stmt 1
 1006 0030 FFF7FEFF 		bl	PWM_SEND_Stop
 243:.\IRCode.c    **** 	uiCurTick += 4500;
 1007              		.loc 1 243 0
 1008 0034 FB68     		ldr	r3, [r7, #12]
 1009 0036 4C4A     		ldr	r2, .L84+8
 1010 0038 9446     		mov	ip, r2
 1011 003a 6344     		add	r3, r3, ip
 1012 003c FB60     		str	r3, [r7, #12]
 244:.\IRCode.c    **** 	while(gtag_ircode.tick_50us  < uiCurTick/50);
 1013              		.loc 1 244 0
 1014 003e C046     		mov	r8, r8
 1015              	.L74:
 1016              		.loc 1 244 0 is_stmt 0 discriminator 1
 1017 0040 474B     		ldr	r3, .L84
 1018 0042 9C68     		ldr	r4, [r3, #8]
 1019 0044 FB68     		ldr	r3, [r7, #12]
 1020 0046 181C     		mov	r0, r3
ARM GAS  C:\Users\zpstrwy\AppData\Local\Temp\cctNxVi3.s 			page 24


 1021 0048 3221     		mov	r1, #50
 1022 004a FFF7FEFF 		bl	__aeabi_uidiv
 1023 004e 031C     		mov	r3, r0
 1024 0050 9C42     		cmp	r4, r3
 1025 0052 F5D3     		bcc	.L74
 245:.\IRCode.c    **** 	for(i = 0;i < 32;i++)
 1026              		.loc 1 245 0 is_stmt 1
 1027 0054 0023     		mov	r3, #0
 1028 0056 3B61     		str	r3, [r7, #16]
 1029 0058 41E0     		b	.L75
 1030              	.L81:
 246:.\IRCode.c    **** 	{
 247:.\IRCode.c    **** 		PWM_SEND_Start();
 1031              		.loc 1 247 0
 1032 005a FFF7FEFF 		bl	PWM_SEND_Start
 248:.\IRCode.c    **** 		uiCurTick += 560;
 1033              		.loc 1 248 0
 1034 005e FB68     		ldr	r3, [r7, #12]
 1035 0060 8C22     		mov	r2, #140
 1036 0062 9200     		lsl	r2, r2, #2
 1037 0064 9446     		mov	ip, r2
 1038 0066 6344     		add	r3, r3, ip
 1039 0068 FB60     		str	r3, [r7, #12]
 249:.\IRCode.c    **** 		while(gtag_ircode.tick_50us  < uiCurTick/50);
 1040              		.loc 1 249 0
 1041 006a C046     		mov	r8, r8
 1042              	.L76:
 1043              		.loc 1 249 0 is_stmt 0 discriminator 1
 1044 006c 3C4B     		ldr	r3, .L84
 1045 006e 9C68     		ldr	r4, [r3, #8]
 1046 0070 FB68     		ldr	r3, [r7, #12]
 1047 0072 181C     		mov	r0, r3
 1048 0074 3221     		mov	r1, #50
 1049 0076 FFF7FEFF 		bl	__aeabi_uidiv
 1050 007a 031C     		mov	r3, r0
 1051 007c 9C42     		cmp	r4, r3
 1052 007e F5D3     		bcc	.L76
 250:.\IRCode.c    **** 		PWM_SEND_Stop();
 1053              		.loc 1 250 0 is_stmt 1
 1054 0080 FFF7FEFF 		bl	PWM_SEND_Stop
 251:.\IRCode.c    **** 		if(cmd&0x01)
 1055              		.loc 1 251 0
 1056 0084 7B69     		ldr	r3, [r7, #20]
 1057 0086 0122     		mov	r2, #1
 1058 0088 1340     		and	r3, r2
 1059 008a 11D0     		beq	.L77
 252:.\IRCode.c    **** 		{
 253:.\IRCode.c    **** 			uiCurTick += 1680;
 1060              		.loc 1 253 0
 1061 008c FB68     		ldr	r3, [r7, #12]
 1062 008e D222     		mov	r2, #210
 1063 0090 D200     		lsl	r2, r2, #3
 1064 0092 9446     		mov	ip, r2
 1065 0094 6344     		add	r3, r3, ip
 1066 0096 FB60     		str	r3, [r7, #12]
 254:.\IRCode.c    **** 			while(gtag_ircode.tick_50us  < uiCurTick/50);
 1067              		.loc 1 254 0
ARM GAS  C:\Users\zpstrwy\AppData\Local\Temp\cctNxVi3.s 			page 25


 1068 0098 C046     		mov	r8, r8
 1069              	.L78:
 1070              		.loc 1 254 0 is_stmt 0 discriminator 1
 1071 009a 314B     		ldr	r3, .L84
 1072 009c 9C68     		ldr	r4, [r3, #8]
 1073 009e FB68     		ldr	r3, [r7, #12]
 1074 00a0 181C     		mov	r0, r3
 1075 00a2 3221     		mov	r1, #50
 1076 00a4 FFF7FEFF 		bl	__aeabi_uidiv
 1077 00a8 031C     		mov	r3, r0
 1078 00aa 9C42     		cmp	r4, r3
 1079 00ac F5D3     		bcc	.L78
 1080 00ae 10E0     		b	.L79
 1081              	.L77:
 255:.\IRCode.c    **** 
 256:.\IRCode.c    **** 		}else
 257:.\IRCode.c    **** 		{
 258:.\IRCode.c    **** 			uiCurTick += 560;
 1082              		.loc 1 258 0 is_stmt 1
 1083 00b0 FB68     		ldr	r3, [r7, #12]
 1084 00b2 8C22     		mov	r2, #140
 1085 00b4 9200     		lsl	r2, r2, #2
 1086 00b6 9446     		mov	ip, r2
 1087 00b8 6344     		add	r3, r3, ip
 1088 00ba FB60     		str	r3, [r7, #12]
 259:.\IRCode.c    **** 			while(gtag_ircode.tick_50us  < uiCurTick/50);		
 1089              		.loc 1 259 0
 1090 00bc C046     		mov	r8, r8
 1091              	.L80:
 1092              		.loc 1 259 0 is_stmt 0 discriminator 1
 1093 00be 284B     		ldr	r3, .L84
 1094 00c0 9C68     		ldr	r4, [r3, #8]
 1095 00c2 FB68     		ldr	r3, [r7, #12]
 1096 00c4 181C     		mov	r0, r3
 1097 00c6 3221     		mov	r1, #50
 1098 00c8 FFF7FEFF 		bl	__aeabi_uidiv
 1099 00cc 031C     		mov	r3, r0
 1100 00ce 9C42     		cmp	r4, r3
 1101 00d0 F5D3     		bcc	.L80
 1102              	.L79:
 260:.\IRCode.c    **** 		}
 261:.\IRCode.c    **** 		cmd >>=1;
 1103              		.loc 1 261 0 is_stmt 1 discriminator 2
 1104 00d2 7B69     		ldr	r3, [r7, #20]
 1105 00d4 5B08     		lsr	r3, r3, #1
 1106 00d6 7B61     		str	r3, [r7, #20]
 245:.\IRCode.c    **** 	{
 1107              		.loc 1 245 0 discriminator 2
 1108 00d8 3B69     		ldr	r3, [r7, #16]
 1109 00da 0133     		add	r3, r3, #1
 1110 00dc 3B61     		str	r3, [r7, #16]
 1111              	.L75:
 245:.\IRCode.c    **** 	{
 1112              		.loc 1 245 0 is_stmt 0 discriminator 1
 1113 00de 3B69     		ldr	r3, [r7, #16]
 1114 00e0 1F2B     		cmp	r3, #31
 1115 00e2 BAD9     		bls	.L81
ARM GAS  C:\Users\zpstrwy\AppData\Local\Temp\cctNxVi3.s 			page 26


 262:.\IRCode.c    **** 	}	
 263:.\IRCode.c    **** 	PWM_SEND_Start();
 1116              		.loc 1 263 0 is_stmt 1
 1117 00e4 FFF7FEFF 		bl	PWM_SEND_Start
 264:.\IRCode.c    **** 	uiCurTick += 560;
 1118              		.loc 1 264 0
 1119 00e8 FB68     		ldr	r3, [r7, #12]
 1120 00ea 8C22     		mov	r2, #140
 1121 00ec 9200     		lsl	r2, r2, #2
 1122 00ee 9446     		mov	ip, r2
 1123 00f0 6344     		add	r3, r3, ip
 1124 00f2 FB60     		str	r3, [r7, #12]
 265:.\IRCode.c    **** 	while(gtag_ircode.tick_50us  < uiCurTick/50);		
 1125              		.loc 1 265 0
 1126 00f4 C046     		mov	r8, r8
 1127              	.L82:
 1128              		.loc 1 265 0 is_stmt 0 discriminator 1
 1129 00f6 1A4B     		ldr	r3, .L84
 1130 00f8 9C68     		ldr	r4, [r3, #8]
 1131 00fa FB68     		ldr	r3, [r7, #12]
 1132 00fc 181C     		mov	r0, r3
 1133 00fe 3221     		mov	r1, #50
 1134 0100 FFF7FEFF 		bl	__aeabi_uidiv
 1135 0104 031C     		mov	r3, r0
 1136 0106 9C42     		cmp	r4, r3
 1137 0108 F5D3     		bcc	.L82
 266:.\IRCode.c    **** 	PWM_SEND_Stop();
 1138              		.loc 1 266 0 is_stmt 1
 1139 010a FFF7FEFF 		bl	PWM_SEND_Stop
 267:.\IRCode.c    **** 	uiCurTick = 108000;
 1140              		.loc 1 267 0
 1141 010e 174B     		ldr	r3, .L84+12
 1142 0110 FB60     		str	r3, [r7, #12]
 268:.\IRCode.c    **** 	while(gtag_ircode.tick_50us  < uiCurTick/50);	
 1143              		.loc 1 268 0
 1144 0112 C046     		mov	r8, r8
 1145              	.L83:
 1146              		.loc 1 268 0 is_stmt 0 discriminator 1
 1147 0114 124B     		ldr	r3, .L84
 1148 0116 9C68     		ldr	r4, [r3, #8]
 1149 0118 FB68     		ldr	r3, [r7, #12]
 1150 011a 181C     		mov	r0, r3
 1151 011c 3221     		mov	r1, #50
 1152 011e FFF7FEFF 		bl	__aeabi_uidiv
 1153 0122 031C     		mov	r3, r0
 1154 0124 9C42     		cmp	r4, r3
 1155 0126 F5D3     		bcc	.L83
 269:.\IRCode.c    **** 	uiCurTick = 0;
 1156              		.loc 1 269 0 is_stmt 1
 1157 0128 0023     		mov	r3, #0
 1158 012a FB60     		str	r3, [r7, #12]
 270:.\IRCode.c    **** 	PWM_SEND_Start();
 1159              		.loc 1 270 0
 1160 012c FFF7FEFF 		bl	PWM_SEND_Start
 271:.\IRCode.c    **** 	IrCode_DelayUs(9000);
 1161              		.loc 1 271 0
 1162 0130 0C4B     		ldr	r3, .L84+4
ARM GAS  C:\Users\zpstrwy\AppData\Local\Temp\cctNxVi3.s 			page 27


 1163 0132 181C     		mov	r0, r3
 1164 0134 FFF7FEFF 		bl	IrCode_DelayUs
 272:.\IRCode.c    **** 	PWM_SEND_Stop();
 1165              		.loc 1 272 0
 1166 0138 FFF7FEFF 		bl	PWM_SEND_Stop
 273:.\IRCode.c    **** 	IrCode_DelayUs(1680);
 1167              		.loc 1 273 0
 1168 013c D223     		mov	r3, #210
 1169 013e DB00     		lsl	r3, r3, #3
 1170 0140 181C     		mov	r0, r3
 1171 0142 FFF7FEFF 		bl	IrCode_DelayUs
 274:.\IRCode.c    **** 	PWM_SEND_Start();
 1172              		.loc 1 274 0
 1173 0146 FFF7FEFF 		bl	PWM_SEND_Start
 275:.\IRCode.c    **** 	IrCode_DelayUs(1680);
 1174              		.loc 1 275 0
 1175 014a D223     		mov	r3, #210
 1176 014c DB00     		lsl	r3, r3, #3
 1177 014e 181C     		mov	r0, r3
 1178 0150 FFF7FEFF 		bl	IrCode_DelayUs
 276:.\IRCode.c    **** 	PWM_SEND_Stop();
 1179              		.loc 1 276 0
 1180 0154 FFF7FEFF 		bl	PWM_SEND_Stop
 277:.\IRCode.c    **** }
 1181              		.loc 1 277 0
 1182 0158 BD46     		mov	sp, r7
 1183 015a 07B0     		add	sp, sp, #28
 1184              		@ sp needed
 1185 015c 90BD     		pop	{r4, r7, pc}
 1186              	.L85:
 1187 015e C046     		.align	2
 1188              	.L84:
 1189 0160 00000000 		.word	gtag_ircode
 1190 0164 28230000 		.word	9000
 1191 0168 94110000 		.word	4500
 1192 016c E0A50100 		.word	108000
 1193              		.cfi_endproc
 1194              	.LFE44:
 1195              		.size	SendTempKey, .-SendTempKey
 1196              		.section	.text.IrCode_SendKey,"ax",%progbits
 1197              		.align	2
 1198              		.global	IrCode_SendKey
 1199              		.code	16
 1200              		.thumb_func
 1201              		.type	IrCode_SendKey, %function
 1202              	IrCode_SendKey:
 1203              	.LFB45:
 278:.\IRCode.c    **** void IrCode_SendKey(uint8 key)
 279:.\IRCode.c    **** {
 1204              		.loc 1 279 0
 1205              		.cfi_startproc
 1206 0000 80B5     		push	{r7, lr}
 1207              		.cfi_def_cfa_offset 8
 1208              		.cfi_offset 7, -8
 1209              		.cfi_offset 14, -4
 1210 0002 84B0     		sub	sp, sp, #16
 1211              		.cfi_def_cfa_offset 24
ARM GAS  C:\Users\zpstrwy\AppData\Local\Temp\cctNxVi3.s 			page 28


 1212 0004 00AF     		add	r7, sp, #0
 1213              		.cfi_def_cfa_register 7
 1214 0006 021C     		mov	r2, r0
 1215 0008 FB1D     		add	r3, r7, #7
 1216 000a 1A70     		strb	r2, [r3]
 280:.\IRCode.c    **** 	uint8 *readBuf;
 281:.\IRCode.c    **** 	uint32 uiReadCmdKey;
 282:.\IRCode.c    **** 	readBuf = (uint8*)((CY_FLASH_NUMBER_ROWS-key)*CYDEV_FLS_ROW_SIZE);
 1217              		.loc 1 282 0
 1218 000c FB1D     		add	r3, r7, #7
 1219 000e 1A78     		ldrb	r2, [r3]
 1220 0010 131C     		mov	r3, r2
 1221 0012 5B06     		lsl	r3, r3, #25
 1222 0014 9B1A     		sub	r3, r3, r2
 1223 0016 DB01     		lsl	r3, r3, #7
 1224 0018 8022     		mov	r2, #128
 1225 001a 9202     		lsl	r2, r2, #10
 1226 001c 9446     		mov	ip, r2
 1227 001e 6344     		add	r3, r3, ip
 1228 0020 FB60     		str	r3, [r7, #12]
 283:.\IRCode.c    **** 	if(readBuf[0] != 0x55)
 1229              		.loc 1 283 0
 1230 0022 FB68     		ldr	r3, [r7, #12]
 1231 0024 1B78     		ldrb	r3, [r3]
 1232 0026 552B     		cmp	r3, #85
 1233 0028 00D0     		beq	.L87
 284:.\IRCode.c    **** 		return;
 1234              		.loc 1 284 0
 1235 002a 17E0     		b	.L86
 1236              	.L87:
 285:.\IRCode.c    **** 	uiReadCmdKey  =readBuf[2] +readBuf[3]*0x100+readBuf[4]*0x10000+readBuf[5]*0x1000000;
 1237              		.loc 1 285 0
 1238 002c FB68     		ldr	r3, [r7, #12]
 1239 002e 0233     		add	r3, r3, #2
 1240 0030 1B78     		ldrb	r3, [r3]
 1241 0032 1A1C     		mov	r2, r3
 1242 0034 FB68     		ldr	r3, [r7, #12]
 1243 0036 0333     		add	r3, r3, #3
 1244 0038 1B78     		ldrb	r3, [r3]
 1245 003a 1B02     		lsl	r3, r3, #8
 1246 003c D218     		add	r2, r2, r3
 1247 003e FB68     		ldr	r3, [r7, #12]
 1248 0040 0433     		add	r3, r3, #4
 1249 0042 1B78     		ldrb	r3, [r3]
 1250 0044 1B04     		lsl	r3, r3, #16
 1251 0046 D218     		add	r2, r2, r3
 1252 0048 FB68     		ldr	r3, [r7, #12]
 1253 004a 0533     		add	r3, r3, #5
 1254 004c 1B78     		ldrb	r3, [r3]
 1255 004e 1B06     		lsl	r3, r3, #24
 1256 0050 D318     		add	r3, r2, r3
 1257 0052 BB60     		str	r3, [r7, #8]
 286:.\IRCode.c    **** 	SendTempKey(uiReadCmdKey);
 1258              		.loc 1 286 0
 1259 0054 BB68     		ldr	r3, [r7, #8]
 1260 0056 181C     		mov	r0, r3
 1261 0058 FFF7FEFF 		bl	SendTempKey
ARM GAS  C:\Users\zpstrwy\AppData\Local\Temp\cctNxVi3.s 			page 29


 1262              	.L86:
 287:.\IRCode.c    **** }
 1263              		.loc 1 287 0
 1264 005c BD46     		mov	sp, r7
 1265 005e 04B0     		add	sp, sp, #16
 1266              		@ sp needed
 1267 0060 80BD     		pop	{r7, pc}
 1268              		.cfi_endproc
 1269              	.LFE45:
 1270              		.size	IrCode_SendKey, .-IrCode_SendKey
 1271 0062 C046     		.section	.text.IrCode_DelayUs,"ax",%progbits
 1272              		.align	2
 1273              		.global	IrCode_DelayUs
 1274              		.code	16
 1275              		.thumb_func
 1276              		.type	IrCode_DelayUs, %function
 1277              	IrCode_DelayUs:
 1278              	.LFB46:
 288:.\IRCode.c    **** 
 289:.\IRCode.c    **** void IrCode_DelayUs(uint32 delay_us)
 290:.\IRCode.c    **** {
 1279              		.loc 1 290 0
 1280              		.cfi_startproc
 1281 0000 90B5     		push	{r4, r7, lr}
 1282              		.cfi_def_cfa_offset 12
 1283              		.cfi_offset 4, -12
 1284              		.cfi_offset 7, -8
 1285              		.cfi_offset 14, -4
 1286 0002 83B0     		sub	sp, sp, #12
 1287              		.cfi_def_cfa_offset 24
 1288 0004 00AF     		add	r7, sp, #0
 1289              		.cfi_def_cfa_register 7
 1290 0006 7860     		str	r0, [r7, #4]
 291:.\IRCode.c    **** 	gtag_ircode.tick_50us = 0;
 1291              		.loc 1 291 0
 1292 0008 084B     		ldr	r3, .L91
 1293 000a 0022     		mov	r2, #0
 1294 000c 9A60     		str	r2, [r3, #8]
 292:.\IRCode.c    **** 	while(gtag_ircode.tick_50us  < delay_us/50);
 1295              		.loc 1 292 0
 1296 000e C046     		mov	r8, r8
 1297              	.L90:
 1298              		.loc 1 292 0 is_stmt 0 discriminator 1
 1299 0010 064B     		ldr	r3, .L91
 1300 0012 9C68     		ldr	r4, [r3, #8]
 1301 0014 7B68     		ldr	r3, [r7, #4]
 1302 0016 181C     		mov	r0, r3
 1303 0018 3221     		mov	r1, #50
 1304 001a FFF7FEFF 		bl	__aeabi_uidiv
 1305 001e 031C     		mov	r3, r0
 1306 0020 9C42     		cmp	r4, r3
 1307 0022 F5D3     		bcc	.L90
 293:.\IRCode.c    **** }
 1308              		.loc 1 293 0 is_stmt 1
 1309 0024 BD46     		mov	sp, r7
 1310 0026 03B0     		add	sp, sp, #12
 1311              		@ sp needed
ARM GAS  C:\Users\zpstrwy\AppData\Local\Temp\cctNxVi3.s 			page 30


 1312 0028 90BD     		pop	{r4, r7, pc}
 1313              	.L92:
 1314 002a C046     		.align	2
 1315              	.L91:
 1316 002c 00000000 		.word	gtag_ircode
 1317              		.cfi_endproc
 1318              	.LFE46:
 1319              		.size	IrCode_DelayUs, .-IrCode_DelayUs
 1320              		.section	.text.IrBlink_RedLed,"ax",%progbits
 1321              		.align	2
 1322              		.global	IrBlink_RedLed
 1323              		.code	16
 1324              		.thumb_func
 1325              		.type	IrBlink_RedLed, %function
 1326              	IrBlink_RedLed:
 1327              	.LFB47:
 294:.\IRCode.c    **** void IrBlink_RedLed(void)
 295:.\IRCode.c    **** {
 1328              		.loc 1 295 0
 1329              		.cfi_startproc
 1330 0000 80B5     		push	{r7, lr}
 1331              		.cfi_def_cfa_offset 8
 1332              		.cfi_offset 7, -8
 1333              		.cfi_offset 14, -4
 1334 0002 00AF     		add	r7, sp, #0
 1335              		.cfi_def_cfa_register 7
 296:.\IRCode.c    **** 	Disconnect_LED_Write(0);
 1336              		.loc 1 296 0
 1337 0004 0020     		mov	r0, #0
 1338 0006 FFF7FEFF 		bl	Disconnect_LED_Write
 297:.\IRCode.c    **** 	IrCode_DelayUs(100000);
 1339              		.loc 1 297 0
 1340 000a 0D4B     		ldr	r3, .L94
 1341 000c 181C     		mov	r0, r3
 1342 000e FFF7FEFF 		bl	IrCode_DelayUs
 298:.\IRCode.c    **** 	Disconnect_LED_Write(1);
 1343              		.loc 1 298 0
 1344 0012 0120     		mov	r0, #1
 1345 0014 FFF7FEFF 		bl	Disconnect_LED_Write
 299:.\IRCode.c    **** 	IrCode_DelayUs(100000);
 1346              		.loc 1 299 0
 1347 0018 094B     		ldr	r3, .L94
 1348 001a 181C     		mov	r0, r3
 1349 001c FFF7FEFF 		bl	IrCode_DelayUs
 300:.\IRCode.c    **** 	Disconnect_LED_Write(0);
 1350              		.loc 1 300 0
 1351 0020 0020     		mov	r0, #0
 1352 0022 FFF7FEFF 		bl	Disconnect_LED_Write
 301:.\IRCode.c    **** 	IrCode_DelayUs(100000);
 1353              		.loc 1 301 0
 1354 0026 064B     		ldr	r3, .L94
 1355 0028 181C     		mov	r0, r3
 1356 002a FFF7FEFF 		bl	IrCode_DelayUs
 302:.\IRCode.c    **** 	Disconnect_LED_Write(1);
 1357              		.loc 1 302 0
 1358 002e 0120     		mov	r0, #1
 1359 0030 FFF7FEFF 		bl	Disconnect_LED_Write
ARM GAS  C:\Users\zpstrwy\AppData\Local\Temp\cctNxVi3.s 			page 31


 303:.\IRCode.c    **** 	IrCode_DelayUs(100000);    	
 1360              		.loc 1 303 0
 1361 0034 024B     		ldr	r3, .L94
 1362 0036 181C     		mov	r0, r3
 1363 0038 FFF7FEFF 		bl	IrCode_DelayUs
 304:.\IRCode.c    **** }
 1364              		.loc 1 304 0
 1365 003c BD46     		mov	sp, r7
 1366              		@ sp needed
 1367 003e 80BD     		pop	{r7, pc}
 1368              	.L95:
 1369              		.align	2
 1370              	.L94:
 1371 0040 A0860100 		.word	100000
 1372              		.cfi_endproc
 1373              	.LFE47:
 1374              		.size	IrBlink_RedLed, .-IrBlink_RedLed
 1375              		.section	.text.IrCode_Study,"ax",%progbits
 1376              		.align	2
 1377              		.global	IrCode_Study
 1378              		.code	16
 1379              		.thumb_func
 1380              		.type	IrCode_Study, %function
 1381              	IrCode_Study:
 1382              	.LFB48:
 305:.\IRCode.c    **** 
 306:.\IRCode.c    **** uint8 IrCode_Study(uint8 key)  //学习KEY键盘
 307:.\IRCode.c    **** {
 1383              		.loc 1 307 0
 1384              		.cfi_startproc
 1385 0000 80B5     		push	{r7, lr}
 1386              		.cfi_def_cfa_offset 8
 1387              		.cfi_offset 7, -8
 1388              		.cfi_offset 14, -4
 1389 0002 A4B0     		sub	sp, sp, #144
 1390              		.cfi_def_cfa_offset 152
 1391 0004 00AF     		add	r7, sp, #0
 1392              		.cfi_def_cfa_register 7
 1393 0006 021C     		mov	r2, r0
 1394 0008 FB1D     		add	r3, r7, #7
 1395 000a 1A70     		strb	r2, [r3]
 308:.\IRCode.c    **** 	uint32 uiRecvKey;
 309:.\IRCode.c    **** 	uint8 irinitkey[128] ={0,};
 1396              		.loc 1 309 0
 1397 000c 0C23     		mov	r3, #12
 1398 000e FB18     		add	r3, r7, r3
 1399 0010 1A1C     		mov	r2, r3
 1400 0012 8023     		mov	r3, #128
 1401 0014 101C     		mov	r0, r2
 1402 0016 0021     		mov	r1, #0
 1403 0018 1A1C     		mov	r2, r3
 1404 001a FFF7FEFF 		bl	memset
 1405              	.L101:
 310:.\IRCode.c    **** 	while(1)
 311:.\IRCode.c    **** 	{
 312:.\IRCode.c    **** 		if(gtag_ircode.IR_NewKeyflag == 0)
 1406              		.loc 1 312 0
ARM GAS  C:\Users\zpstrwy\AppData\Local\Temp\cctNxVi3.s 			page 32


 1407 001e 1F4B     		ldr	r3, .L104
 1408 0020 9B78     		ldrb	r3, [r3, #2]
 1409 0022 DBB2     		uxtb	r3, r3
 1410 0024 002B     		cmp	r3, #0
 1411 0026 02D1     		bne	.L97
 313:.\IRCode.c    **** 		{
 314:.\IRCode.c    **** 			IrBlink_RedLed();
 1412              		.loc 1 314 0
 1413 0028 FFF7FEFF 		bl	IrBlink_RedLed
 315:.\IRCode.c    **** 			continue;
 1414              		.loc 1 315 0
 1415 002c 30E0     		b	.L98
 1416              	.L97:
 316:.\IRCode.c    **** 		}
 317:.\IRCode.c    **** 		uiRecvKey =  Ir_DecoderCode();
 1417              		.loc 1 317 0
 1418 002e FFF7FEFF 		bl	Ir_DecoderCode
 1419 0032 031C     		mov	r3, r0
 1420 0034 8C22     		mov	r2, #140
 1421 0036 BA18     		add	r2, r7, r2
 1422 0038 1360     		str	r3, [r2]
 318:.\IRCode.c    **** 		gtag_ircode.IR_NewKeyflag = 0;
 1423              		.loc 1 318 0
 1424 003a 184B     		ldr	r3, .L104
 1425 003c 0022     		mov	r2, #0
 1426 003e 9A70     		strb	r2, [r3, #2]
 319:.\IRCode.c    **** 		if(uiRecvKey == 0)
 1427              		.loc 1 319 0
 1428 0040 8C23     		mov	r3, #140
 1429 0042 FB18     		add	r3, r7, r3
 1430 0044 1B68     		ldr	r3, [r3]
 1431 0046 002B     		cmp	r3, #0
 1432 0048 00D1     		bne	.L99
 320:.\IRCode.c    **** 			continue;
 1433              		.loc 1 320 0
 1434 004a 21E0     		b	.L98
 1435              	.L99:
 321:.\IRCode.c    **** 		//收到键盘
 322:.\IRCode.c    **** 		irinitkey[0] = 0x55;
 1436              		.loc 1 322 0
 1437 004c 0C23     		mov	r3, #12
 1438 004e FB18     		add	r3, r7, r3
 1439 0050 5522     		mov	r2, #85
 1440 0052 1A70     		strb	r2, [r3]
 323:.\IRCode.c    **** 		irinitkey[1] = 0x04;
 1441              		.loc 1 323 0
 1442 0054 0C23     		mov	r3, #12
 1443 0056 FB18     		add	r3, r7, r3
 1444 0058 0422     		mov	r2, #4
 1445 005a 5A70     		strb	r2, [r3, #1]
 324:.\IRCode.c    **** 		memcpy(irinitkey+2,(uint8*)&uiRecvKey,4);
 1446              		.loc 1 324 0
 1447 005c 0C23     		mov	r3, #12
 1448 005e FB18     		add	r3, r7, r3
 1449 0060 9A1C     		add	r2, r3, #2
 1450 0062 8C23     		mov	r3, #140
 1451 0064 FB18     		add	r3, r7, r3
ARM GAS  C:\Users\zpstrwy\AppData\Local\Temp\cctNxVi3.s 			page 33


 1452 0066 101C     		mov	r0, r2
 1453 0068 191C     		mov	r1, r3
 1454 006a 0422     		mov	r2, #4
 1455 006c FFF7FEFF 		bl	memcpy
 325:.\IRCode.c    **** 		CySysFlashWriteRow(CY_FLASH_NUMBER_ROWS-key,irinitkey);
 1456              		.loc 1 325 0
 1457 0070 FB1D     		add	r3, r7, #7
 1458 0072 1B78     		ldrb	r3, [r3]
 1459 0074 8022     		mov	r2, #128
 1460 0076 D200     		lsl	r2, r2, #3
 1461 0078 D21A     		sub	r2, r2, r3
 1462 007a 0C23     		mov	r3, #12
 1463 007c FB18     		add	r3, r7, r3
 1464 007e 101C     		mov	r0, r2
 1465 0080 191C     		mov	r1, r3
 1466 0082 FFF7FEFF 		bl	CySysFlashWriteRow
 326:.\IRCode.c    **** 		IrBlink_RedLed();
 1467              		.loc 1 326 0
 1468 0086 FFF7FEFF 		bl	IrBlink_RedLed
 327:.\IRCode.c    **** 		IrBlink_RedLed();
 1469              		.loc 1 327 0
 1470 008a FFF7FEFF 		bl	IrBlink_RedLed
 328:.\IRCode.c    **** 		break;
 1471              		.loc 1 328 0
 1472 008e 00E0     		b	.L103
 1473              	.L98:
 329:.\IRCode.c    **** 	}
 1474              		.loc 1 329 0
 1475 0090 C5E7     		b	.L101
 1476              	.L103:
 330:.\IRCode.c    ****     return 0;
 1477              		.loc 1 330 0
 1478 0092 0023     		mov	r3, #0
 331:.\IRCode.c    **** }
 1479              		.loc 1 331 0
 1480 0094 181C     		mov	r0, r3
 1481 0096 BD46     		mov	sp, r7
 1482 0098 24B0     		add	sp, sp, #144
 1483              		@ sp needed
 1484 009a 80BD     		pop	{r7, pc}
 1485              	.L105:
 1486              		.align	2
 1487              	.L104:
 1488 009c 00000000 		.word	gtag_ircode
 1489              		.cfi_endproc
 1490              	.LFE48:
 1491              		.size	IrCode_Study, .-IrCode_Study
 1492              		.bss
 1493              	step.8757:
 1494 0000 00       		.space	1
 1495              		.text
 1496              	.Letext0:
 1497              		.file 2 "Generated_Source\\PSoC4/cytypes.h"
 1498              		.file 3 ".\\IRCode.h"
 1499              		.file 4 "Generated_Source\\PSoC4/BLE_Stack.h"